
test_e203hbridv2.elf:     file format elf32-littleriscv


Disassembly of section .init:

80000000 <_start>:
80000000:	30047073          	csrci	mstatus,8
80000004:	30405073          	csrwi	mie,0
80000008:	10001197          	auipc	gp,0x10001
8000000c:	85818193          	addi	gp,gp,-1960 # 90000860 <__global_pointer$>
80000010:	10010117          	auipc	sp,0x10010
80000014:	ff010113          	addi	sp,sp,-16 # 90010000 <_sp>
80000018:	00000297          	auipc	t0,0x0
8000001c:	27428293          	addi	t0,t0,628 # 8000028c <trap_entry>
80000020:	30529073          	csrw	mtvec,t0
80000024:	3051f073          	csrci	mtvec,3
80000028:	00000517          	auipc	a0,0x0
8000002c:	09450513          	addi	a0,a0,148 # 800000bc <_ilm>
80000030:	00000597          	auipc	a1,0x0
80000034:	08c58593          	addi	a1,a1,140 # 800000bc <_ilm>
80000038:	02b50063          	beq	a0,a1,80000058 <_start+0x58>
8000003c:	00004617          	auipc	a2,0x4
80000040:	2e860613          	addi	a2,a2,744 # 80004324 <__fsymtab_end>
80000044:	00c5fa63          	bgeu	a1,a2,80000058 <_start+0x58>
80000048:	00052283          	lw	t0,0(a0)
8000004c:	0055a023          	sw	t0,0(a1)
80000050:	0511                	addi	a0,a0,4
80000052:	0591                	addi	a1,a1,4
80000054:	fec5eae3          	bltu	a1,a2,80000048 <_start+0x48>
80000058:	00004517          	auipc	a0,0x4
8000005c:	2cc50513          	addi	a0,a0,716 # 80004324 <__fsymtab_end>
80000060:	10000597          	auipc	a1,0x10000
80000064:	fa058593          	addi	a1,a1,-96 # 90000000 <_data>
80000068:	81018613          	addi	a2,gp,-2032 # 90000070 <cir_rd_1>
8000006c:	00c5fa63          	bgeu	a1,a2,80000080 <_start+0x80>
80000070:	00052283          	lw	t0,0(a0)
80000074:	0055a023          	sw	t0,0(a1)
80000078:	0511                	addi	a0,a0,4
8000007a:	0591                	addi	a1,a1,4
8000007c:	fec5eae3          	bltu	a1,a2,80000070 <_start+0x70>
80000080:	81018513          	addi	a0,gp,-2032 # 90000070 <cir_rd_1>
80000084:	a1818593          	addi	a1,gp,-1512 # 90000278 <_end>
80000088:	00b57763          	bgeu	a0,a1,80000096 <_start+0x96>
8000008c:	00052023          	sw	zero,0(a0)
80000090:	0511                	addi	a0,a0,4
80000092:	feb56de3          	bltu	a0,a1,8000008c <_start+0x8c>
80000096:	23a5                	jal	800005fe <SystemInit>
80000098:	00003517          	auipc	a0,0x3
8000009c:	8f250513          	addi	a0,a0,-1806 # 8000298a <__libc_fini_array>
800000a0:	0e1020ef          	jal	ra,80002980 <atexit>
800000a4:	121020ef          	jal	ra,800029c4 <__libc_init_array>
800000a8:	0cd000ef          	jal	ra,80000974 <_premain_init>
800000ac:	4501                	li	a0,0
800000ae:	4581                	li	a1,0
800000b0:	0bd010ef          	jal	ra,8000196c <main>
800000b4:	1df000ef          	jal	ra,80000a92 <_postmain_fini>
800000b8:	a001                	j	800000b8 <_start+0xb8>

Disassembly of section .text:

800000bc <_close>:
800000bc:	1101                	addi	sp,sp,-32
800000be:	ce22                	sw	s0,28(sp)
800000c0:	1000                	addi	s0,sp,32
800000c2:	fea42623          	sw	a0,-20(s0)
800000c6:	a1018793          	addi	a5,gp,-1520 # 90000270 <errno>
800000ca:	4725                	li	a4,9
800000cc:	c398                	sw	a4,0(a5)
800000ce:	57fd                	li	a5,-1
800000d0:	853e                	mv	a0,a5
800000d2:	4472                	lw	s0,28(sp)
800000d4:	6105                	addi	sp,sp,32
800000d6:	8082                	ret

800000d8 <_fstat>:
800000d8:	1101                	addi	sp,sp,-32
800000da:	ce22                	sw	s0,28(sp)
800000dc:	1000                	addi	s0,sp,32
800000de:	fea42623          	sw	a0,-20(s0)
800000e2:	feb42423          	sw	a1,-24(s0)
800000e6:	fec42703          	lw	a4,-20(s0)
800000ea:	4785                	li	a5,1
800000ec:	00f70763          	beq	a4,a5,800000fa <_fstat+0x22>
800000f0:	fec42703          	lw	a4,-20(s0)
800000f4:	4789                	li	a5,2
800000f6:	00f71863          	bne	a4,a5,80000106 <_fstat+0x2e>
800000fa:	fe842783          	lw	a5,-24(s0)
800000fe:	6709                	lui	a4,0x2
80000100:	c3d8                	sw	a4,4(a5)
80000102:	4781                	li	a5,0
80000104:	a031                	j	80000110 <_fstat+0x38>
80000106:	a1018793          	addi	a5,gp,-1520 # 90000270 <errno>
8000010a:	4725                	li	a4,9
8000010c:	c398                	sw	a4,0(a5)
8000010e:	57fd                	li	a5,-1
80000110:	853e                	mv	a0,a5
80000112:	4472                	lw	s0,28(sp)
80000114:	6105                	addi	sp,sp,32
80000116:	8082                	ret

80000118 <_isatty>:
80000118:	1101                	addi	sp,sp,-32
8000011a:	ce22                	sw	s0,28(sp)
8000011c:	1000                	addi	s0,sp,32
8000011e:	fea42623          	sw	a0,-20(s0)
80000122:	4785                	li	a5,1
80000124:	853e                	mv	a0,a5
80000126:	4472                	lw	s0,28(sp)
80000128:	6105                	addi	sp,sp,32
8000012a:	8082                	ret

8000012c <_lseek>:
8000012c:	1101                	addi	sp,sp,-32
8000012e:	ce22                	sw	s0,28(sp)
80000130:	1000                	addi	s0,sp,32
80000132:	fea42623          	sw	a0,-20(s0)
80000136:	feb42423          	sw	a1,-24(s0)
8000013a:	fec42223          	sw	a2,-28(s0)
8000013e:	4781                	li	a5,0
80000140:	853e                	mv	a0,a5
80000142:	4472                	lw	s0,28(sp)
80000144:	6105                	addi	sp,sp,32
80000146:	8082                	ret

80000148 <_read>:
80000148:	7179                	addi	sp,sp,-48
8000014a:	d606                	sw	ra,44(sp)
8000014c:	d422                	sw	s0,40(sp)
8000014e:	1800                	addi	s0,sp,48
80000150:	fca42e23          	sw	a0,-36(s0)
80000154:	fcb42c23          	sw	a1,-40(s0)
80000158:	fcc42a23          	sw	a2,-44(s0)
8000015c:	fdc42783          	lw	a5,-36(s0)
80000160:	c399                	beqz	a5,80000166 <_read+0x1e>
80000162:	57fd                	li	a5,-1
80000164:	a839                	j	80000182 <_read+0x3a>
80000166:	fd842783          	lw	a5,-40(s0)
8000016a:	fef42623          	sw	a5,-20(s0)
8000016e:	10013537          	lui	a0,0x10013
80000172:	2479                	jal	80000400 <uart_read>
80000174:	87aa                	mv	a5,a0
80000176:	873e                	mv	a4,a5
80000178:	fec42783          	lw	a5,-20(s0)
8000017c:	00e78023          	sb	a4,0(a5)
80000180:	4785                	li	a5,1
80000182:	853e                	mv	a0,a5
80000184:	50b2                	lw	ra,44(sp)
80000186:	5422                	lw	s0,40(sp)
80000188:	6145                	addi	sp,sp,48
8000018a:	8082                	ret

8000018c <_sbrk>:
8000018c:	1101                	addi	sp,sp,-32
8000018e:	ce22                	sw	s0,28(sp)
80000190:	1000                	addi	s0,sp,32
80000192:	fea42623          	sw	a0,-20(s0)
80000196:	10000797          	auipc	a5,0x10000
8000019a:	eca78793          	addi	a5,a5,-310 # 90000060 <curbrk.2850>
8000019e:	4398                	lw	a4,0(a5)
800001a0:	fec42783          	lw	a5,-20(s0)
800001a4:	973e                	add	a4,a4,a5
800001a6:	a1818793          	addi	a5,gp,-1512 # 90000278 <_end>
800001aa:	02f76063          	bltu	a4,a5,800001ca <_sbrk+0x3e>
800001ae:	10000797          	auipc	a5,0x10000
800001b2:	eb278793          	addi	a5,a5,-334 # 90000060 <curbrk.2850>
800001b6:	4398                	lw	a4,0(a5)
800001b8:	fec42783          	lw	a5,-20(s0)
800001bc:	973e                	add	a4,a4,a5
800001be:	1000f797          	auipc	a5,0x1000f
800001c2:	64278793          	addi	a5,a5,1602 # 9000f800 <_heap_end>
800001c6:	00e7f463          	bgeu	a5,a4,800001ce <_sbrk+0x42>
800001ca:	57fd                	li	a5,-1
800001cc:	a805                	j	800001fc <_sbrk+0x70>
800001ce:	10000797          	auipc	a5,0x10000
800001d2:	e9278793          	addi	a5,a5,-366 # 90000060 <curbrk.2850>
800001d6:	4398                	lw	a4,0(a5)
800001d8:	fec42783          	lw	a5,-20(s0)
800001dc:	973e                	add	a4,a4,a5
800001de:	10000797          	auipc	a5,0x10000
800001e2:	e8278793          	addi	a5,a5,-382 # 90000060 <curbrk.2850>
800001e6:	c398                	sw	a4,0(a5)
800001e8:	10000797          	auipc	a5,0x10000
800001ec:	e7878793          	addi	a5,a5,-392 # 90000060 <curbrk.2850>
800001f0:	4398                	lw	a4,0(a5)
800001f2:	fec42783          	lw	a5,-20(s0)
800001f6:	40f007b3          	neg	a5,a5
800001fa:	97ba                	add	a5,a5,a4
800001fc:	853e                	mv	a0,a5
800001fe:	4472                	lw	s0,28(sp)
80000200:	6105                	addi	sp,sp,32
80000202:	8082                	ret

80000204 <_write>:
80000204:	7179                	addi	sp,sp,-48
80000206:	d606                	sw	ra,44(sp)
80000208:	d422                	sw	s0,40(sp)
8000020a:	1800                	addi	s0,sp,48
8000020c:	fca42e23          	sw	a0,-36(s0)
80000210:	fcb42c23          	sw	a1,-40(s0)
80000214:	fcc42a23          	sw	a2,-44(s0)
80000218:	fdc42503          	lw	a0,-36(s0)
8000021c:	1db020ef          	jal	ra,80002bf6 <isatty>
80000220:	87aa                	mv	a5,a0
80000222:	e399                	bnez	a5,80000228 <_write+0x24>
80000224:	57fd                	li	a5,-1
80000226:	a8b1                	j	80000282 <_write+0x7e>
80000228:	fd842783          	lw	a5,-40(s0)
8000022c:	fef42423          	sw	a5,-24(s0)
80000230:	fe042623          	sw	zero,-20(s0)
80000234:	a83d                	j	80000272 <_write+0x6e>
80000236:	fe842703          	lw	a4,-24(s0)
8000023a:	fec42783          	lw	a5,-20(s0)
8000023e:	97ba                	add	a5,a5,a4
80000240:	0007c703          	lbu	a4,0(a5)
80000244:	47a9                	li	a5,10
80000246:	00f71663          	bne	a4,a5,80000252 <_write+0x4e>
8000024a:	45b5                	li	a1,13
8000024c:	10013537          	lui	a0,0x10013
80000250:	22b5                	jal	800003bc <uart_write>
80000252:	fe842703          	lw	a4,-24(s0)
80000256:	fec42783          	lw	a5,-20(s0)
8000025a:	97ba                	add	a5,a5,a4
8000025c:	0007c783          	lbu	a5,0(a5)
80000260:	85be                	mv	a1,a5
80000262:	10013537          	lui	a0,0x10013
80000266:	2a99                	jal	800003bc <uart_write>
80000268:	fec42783          	lw	a5,-20(s0)
8000026c:	0785                	addi	a5,a5,1
8000026e:	fef42623          	sw	a5,-20(s0)
80000272:	fec42703          	lw	a4,-20(s0)
80000276:	fd442783          	lw	a5,-44(s0)
8000027a:	faf76ee3          	bltu	a4,a5,80000236 <_write+0x32>
8000027e:	fd442783          	lw	a5,-44(s0)
80000282:	853e                	mv	a0,a5
80000284:	50b2                	lw	ra,44(sp)
80000286:	5422                	lw	s0,40(sp)
80000288:	6145                	addi	sp,sp,48
8000028a:	8082                	ret

8000028c <trap_entry>:
8000028c:	715d                	addi	sp,sp,-80
8000028e:	c006                	sw	ra,0(sp)
80000290:	c212                	sw	tp,4(sp)
80000292:	c416                	sw	t0,8(sp)
80000294:	c61a                	sw	t1,12(sp)
80000296:	c81e                	sw	t2,16(sp)
80000298:	ca2a                	sw	a0,20(sp)
8000029a:	cc2e                	sw	a1,24(sp)
8000029c:	ce32                	sw	a2,28(sp)
8000029e:	d036                	sw	a3,32(sp)
800002a0:	d23a                	sw	a4,36(sp)
800002a2:	d43e                	sw	a5,40(sp)
800002a4:	dc42                	sw	a6,56(sp)
800002a6:	de46                	sw	a7,60(sp)
800002a8:	c0f2                	sw	t3,64(sp)
800002aa:	c2f6                	sw	t4,68(sp)
800002ac:	c4fa                	sw	t5,72(sp)
800002ae:	c6fe                	sw	t6,76(sp)
800002b0:	341022f3          	csrr	t0,mepc
800002b4:	d616                	sw	t0,44(sp)
800002b6:	342022f3          	csrr	t0,mcause
800002ba:	d816                	sw	t0,48(sp)
800002bc:	300022f3          	csrr	t0,mstatus
800002c0:	da16                	sw	t0,52(sp)
800002c2:	34202573          	csrr	a0,mcause
800002c6:	858a                	mv	a1,sp
800002c8:	21c9                	jal	8000078a <core_trap_handler>
800002ca:	52b2                	lw	t0,44(sp)
800002cc:	34129073          	csrw	mepc,t0
800002d0:	52c2                	lw	t0,48(sp)
800002d2:	34229073          	csrw	mcause,t0
800002d6:	52d2                	lw	t0,52(sp)
800002d8:	30029073          	csrw	mstatus,t0
800002dc:	4082                	lw	ra,0(sp)
800002de:	4212                	lw	tp,4(sp)
800002e0:	42a2                	lw	t0,8(sp)
800002e2:	4332                	lw	t1,12(sp)
800002e4:	43c2                	lw	t2,16(sp)
800002e6:	4552                	lw	a0,20(sp)
800002e8:	45e2                	lw	a1,24(sp)
800002ea:	4672                	lw	a2,28(sp)
800002ec:	5682                	lw	a3,32(sp)
800002ee:	5712                	lw	a4,36(sp)
800002f0:	57a2                	lw	a5,40(sp)
800002f2:	5862                	lw	a6,56(sp)
800002f4:	58f2                	lw	a7,60(sp)
800002f6:	4e06                	lw	t3,64(sp)
800002f8:	4e96                	lw	t4,68(sp)
800002fa:	4f26                	lw	t5,72(sp)
800002fc:	4fb6                	lw	t6,76(sp)
800002fe:	6161                	addi	sp,sp,80
80000300:	30200073          	mret

80000304 <gpio_iof_config>:
80000304:	1101                	addi	sp,sp,-32
80000306:	ce22                	sw	s0,28(sp)
80000308:	1000                	addi	s0,sp,32
8000030a:	fea42623          	sw	a0,-20(s0)
8000030e:	feb42423          	sw	a1,-24(s0)
80000312:	fec42783          	lw	a5,-20(s0)
80000316:	0017b793          	seqz	a5,a5
8000031a:	0ff7f793          	andi	a5,a5,255
8000031e:	c399                	beqz	a5,80000324 <gpio_iof_config+0x20>
80000320:	57fd                	li	a5,-1
80000322:	a819                	j	80000338 <gpio_iof_config+0x34>
80000324:	fec42783          	lw	a5,-20(s0)
80000328:	4fd8                	lw	a4,28(a5)
8000032a:	fe842783          	lw	a5,-24(s0)
8000032e:	8f5d                	or	a4,a4,a5
80000330:	fec42783          	lw	a5,-20(s0)
80000334:	cfd8                	sw	a4,28(a5)
80000336:	4781                	li	a5,0
80000338:	853e                	mv	a0,a5
8000033a:	4472                	lw	s0,28(sp)
8000033c:	6105                	addi	sp,sp,32
8000033e:	8082                	ret

80000340 <uart_init>:
80000340:	7179                	addi	sp,sp,-48
80000342:	d622                	sw	s0,44(sp)
80000344:	1800                	addi	s0,sp,48
80000346:	fca42e23          	sw	a0,-36(s0)
8000034a:	fcb42c23          	sw	a1,-40(s0)
8000034e:	fdc42783          	lw	a5,-36(s0)
80000352:	0017b793          	seqz	a5,a5
80000356:	0ff7f793          	andi	a5,a5,255
8000035a:	c399                	beqz	a5,80000360 <uart_init+0x20>
8000035c:	57fd                	li	a5,-1
8000035e:	a899                	j	800003b4 <uart_init+0x74>
80000360:	10000797          	auipc	a5,0x10000
80000364:	d0478793          	addi	a5,a5,-764 # 90000064 <SystemCoreClock>
80000368:	4398                	lw	a4,0(a5)
8000036a:	fd842783          	lw	a5,-40(s0)
8000036e:	02f757b3          	divu	a5,a4,a5
80000372:	17fd                	addi	a5,a5,-1
80000374:	fef42623          	sw	a5,-20(s0)
80000378:	fdc42783          	lw	a5,-36(s0)
8000037c:	08000713          	li	a4,128
80000380:	c7d8                	sw	a4,12(a5)
80000382:	fec42783          	lw	a5,-20(s0)
80000386:	83a1                	srli	a5,a5,0x8
80000388:	0ff7f713          	andi	a4,a5,255
8000038c:	fdc42783          	lw	a5,-36(s0)
80000390:	c3d8                	sw	a4,4(a5)
80000392:	fec42783          	lw	a5,-20(s0)
80000396:	0ff7f713          	andi	a4,a5,255
8000039a:	fdc42783          	lw	a5,-36(s0)
8000039e:	c398                	sw	a4,0(a5)
800003a0:	fdc42783          	lw	a5,-36(s0)
800003a4:	0c600713          	li	a4,198
800003a8:	c798                	sw	a4,8(a5)
800003aa:	fdc42783          	lw	a5,-36(s0)
800003ae:	470d                	li	a4,3
800003b0:	c7d8                	sw	a4,12(a5)
800003b2:	4781                	li	a5,0
800003b4:	853e                	mv	a0,a5
800003b6:	5432                	lw	s0,44(sp)
800003b8:	6145                	addi	sp,sp,48
800003ba:	8082                	ret

800003bc <uart_write>:
800003bc:	1101                	addi	sp,sp,-32
800003be:	ce22                	sw	s0,28(sp)
800003c0:	1000                	addi	s0,sp,32
800003c2:	fea42623          	sw	a0,-20(s0)
800003c6:	87ae                	mv	a5,a1
800003c8:	fef405a3          	sb	a5,-21(s0)
800003cc:	fec42783          	lw	a5,-20(s0)
800003d0:	0017b793          	seqz	a5,a5
800003d4:	0ff7f793          	andi	a5,a5,255
800003d8:	c399                	beqz	a5,800003de <uart_write+0x22>
800003da:	57fd                	li	a5,-1
800003dc:	a831                	j	800003f8 <uart_write+0x3c>
800003de:	0001                	nop
800003e0:	fec42783          	lw	a5,-20(s0)
800003e4:	4bdc                	lw	a5,20(a5)
800003e6:	0207f793          	andi	a5,a5,32
800003ea:	dbfd                	beqz	a5,800003e0 <uart_write+0x24>
800003ec:	feb44703          	lbu	a4,-21(s0)
800003f0:	fec42783          	lw	a5,-20(s0)
800003f4:	c398                	sw	a4,0(a5)
800003f6:	4781                	li	a5,0
800003f8:	853e                	mv	a0,a5
800003fa:	4472                	lw	s0,28(sp)
800003fc:	6105                	addi	sp,sp,32
800003fe:	8082                	ret

80000400 <uart_read>:
80000400:	7179                	addi	sp,sp,-48
80000402:	d622                	sw	s0,44(sp)
80000404:	1800                	addi	s0,sp,48
80000406:	fca42e23          	sw	a0,-36(s0)
8000040a:	fdc42783          	lw	a5,-36(s0)
8000040e:	0017b793          	seqz	a5,a5
80000412:	0ff7f793          	andi	a5,a5,255
80000416:	c781                	beqz	a5,8000041e <uart_read+0x1e>
80000418:	0ff00793          	li	a5,255
8000041c:	a005                	j	8000043c <uart_read+0x3c>
8000041e:	0001                	nop
80000420:	fdc42783          	lw	a5,-36(s0)
80000424:	4bdc                	lw	a5,20(a5)
80000426:	8b85                	andi	a5,a5,1
80000428:	dfe5                	beqz	a5,80000420 <uart_read+0x20>
8000042a:	fdc42783          	lw	a5,-36(s0)
8000042e:	439c                	lw	a5,0(a5)
80000430:	fef42623          	sw	a5,-20(s0)
80000434:	fec42783          	lw	a5,-20(s0)
80000438:	0ff7f793          	andi	a5,a5,255
8000043c:	853e                	mv	a0,a5
8000043e:	5432                	lw	s0,44(sp)
80000440:	6145                	addi	sp,sp,48
80000442:	8082                	ret

80000444 <get_timer_freq>:
80000444:	1141                	addi	sp,sp,-16
80000446:	c622                	sw	s0,12(sp)
80000448:	0800                	addi	s0,sp,16
8000044a:	67a1                	lui	a5,0x8
8000044c:	853e                	mv	a0,a5
8000044e:	4432                	lw	s0,12(sp)
80000450:	0141                	addi	sp,sp,16
80000452:	8082                	ret

80000454 <measure_cpu_freq>:
80000454:	7139                	addi	sp,sp,-64
80000456:	de06                	sw	ra,60(sp)
80000458:	dc22                	sw	s0,56(sp)
8000045a:	da26                	sw	s1,52(sp)
8000045c:	0080                	addi	s0,sp,64
8000045e:	fca42623          	sw	a0,-52(s0)
80000462:	37cd                	jal	80000444 <get_timer_freq>
80000464:	fea42623          	sw	a0,-20(s0)
80000468:	02000737          	lui	a4,0x2000
8000046c:	67b1                	lui	a5,0xc
8000046e:	97ba                	add	a5,a5,a4
80000470:	ff87a703          	lw	a4,-8(a5) # bff8 <__stack_size+0xb7f8>
80000474:	ffc7a783          	lw	a5,-4(a5)
80000478:	fee42423          	sw	a4,-24(s0)
8000047c:	02000737          	lui	a4,0x2000
80000480:	67b1                	lui	a5,0xc
80000482:	97ba                	add	a5,a5,a4
80000484:	ff87a703          	lw	a4,-8(a5) # bff8 <__stack_size+0xb7f8>
80000488:	ffc7a783          	lw	a5,-4(a5)
8000048c:	fee42223          	sw	a4,-28(s0)
80000490:	b00027f3          	csrr	a5,mcycle
80000494:	84be                	mv	s1,a5
80000496:	87a6                	mv	a5,s1
80000498:	fef42023          	sw	a5,-32(s0)
8000049c:	fe442703          	lw	a4,-28(s0)
800004a0:	fe842783          	lw	a5,-24(s0)
800004a4:	fcf70ce3          	beq	a4,a5,8000047c <measure_cpu_freq+0x28>
800004a8:	02000737          	lui	a4,0x2000
800004ac:	67b1                	lui	a5,0xc
800004ae:	97ba                	add	a5,a5,a4
800004b0:	ff87a703          	lw	a4,-8(a5) # bff8 <__stack_size+0xb7f8>
800004b4:	ffc7a783          	lw	a5,-4(a5)
800004b8:	fe442783          	lw	a5,-28(s0)
800004bc:	40f707b3          	sub	a5,a4,a5
800004c0:	fcf42e23          	sw	a5,-36(s0)
800004c4:	b00027f3          	csrr	a5,mcycle
800004c8:	84be                	mv	s1,a5
800004ca:	8726                	mv	a4,s1
800004cc:	fe042783          	lw	a5,-32(s0)
800004d0:	40f707b3          	sub	a5,a4,a5
800004d4:	fcf42c23          	sw	a5,-40(s0)
800004d8:	fdc42703          	lw	a4,-36(s0)
800004dc:	fcc42783          	lw	a5,-52(s0)
800004e0:	fcf764e3          	bltu	a4,a5,800004a8 <measure_cpu_freq+0x54>
800004e4:	fd842703          	lw	a4,-40(s0)
800004e8:	fdc42783          	lw	a5,-36(s0)
800004ec:	02f75733          	divu	a4,a4,a5
800004f0:	fec42783          	lw	a5,-20(s0)
800004f4:	02f70733          	mul	a4,a4,a5
800004f8:	fd842683          	lw	a3,-40(s0)
800004fc:	fdc42783          	lw	a5,-36(s0)
80000500:	02f6f6b3          	remu	a3,a3,a5
80000504:	fec42783          	lw	a5,-20(s0)
80000508:	02f686b3          	mul	a3,a3,a5
8000050c:	fdc42783          	lw	a5,-36(s0)
80000510:	02f6d7b3          	divu	a5,a3,a5
80000514:	97ba                	add	a5,a5,a4
80000516:	853e                	mv	a0,a5
80000518:	50f2                	lw	ra,60(sp)
8000051a:	5462                	lw	s0,56(sp)
8000051c:	54d2                	lw	s1,52(sp)
8000051e:	6121                	addi	sp,sp,64
80000520:	8082                	ret

80000522 <get_cpu_freq>:
80000522:	1101                	addi	sp,sp,-32
80000524:	ce06                	sw	ra,28(sp)
80000526:	cc22                	sw	s0,24(sp)
80000528:	1000                	addi	s0,sp,32
8000052a:	4505                	li	a0,1
8000052c:	3725                	jal	80000454 <measure_cpu_freq>
8000052e:	06400513          	li	a0,100
80000532:	370d                	jal	80000454 <measure_cpu_freq>
80000534:	fea42623          	sw	a0,-20(s0)
80000538:	fec42783          	lw	a5,-20(s0)
8000053c:	853e                	mv	a0,a5
8000053e:	40f2                	lw	ra,28(sp)
80000540:	4462                	lw	s0,24(sp)
80000542:	6105                	addi	sp,sp,32
80000544:	8082                	ret

80000546 <delay_1ms>:
80000546:	7139                	addi	sp,sp,-64
80000548:	de06                	sw	ra,60(sp)
8000054a:	dc22                	sw	s0,56(sp)
8000054c:	0080                	addi	s0,sp,64
8000054e:	fca42623          	sw	a0,-52(s0)
80000552:	fcc42783          	lw	a5,-52(s0)
80000556:	863e                	mv	a2,a5
80000558:	4681                	li	a3,0
8000055a:	01165793          	srli	a5,a2,0x11
8000055e:	00f69893          	slli	a7,a3,0xf
80000562:	0117e8b3          	or	a7,a5,a7
80000566:	00f61813          	slli	a6,a2,0xf
8000056a:	3e800613          	li	a2,1000
8000056e:	4681                	li	a3,0
80000570:	8542                	mv	a0,a6
80000572:	85c6                	mv	a1,a7
80000574:	0a8020ef          	jal	ra,8000261c <__udivdi3>
80000578:	872a                	mv	a4,a0
8000057a:	87ae                	mv	a5,a1
8000057c:	fee42423          	sw	a4,-24(s0)
80000580:	fef42623          	sw	a5,-20(s0)
80000584:	02000737          	lui	a4,0x2000
80000588:	67b1                	lui	a5,0xc
8000058a:	97ba                	add	a5,a5,a4
8000058c:	ff87a703          	lw	a4,-8(a5) # bff8 <__stack_size+0xb7f8>
80000590:	ffc7a783          	lw	a5,-4(a5)
80000594:	fee42023          	sw	a4,-32(s0)
80000598:	fef42223          	sw	a5,-28(s0)
8000059c:	02000737          	lui	a4,0x2000
800005a0:	67b1                	lui	a5,0xc
800005a2:	97ba                	add	a5,a5,a4
800005a4:	ff87a803          	lw	a6,-8(a5) # bff8 <__stack_size+0xb7f8>
800005a8:	ffc7a883          	lw	a7,-4(a5)
800005ac:	fe042503          	lw	a0,-32(s0)
800005b0:	fe442583          	lw	a1,-28(s0)
800005b4:	40a80633          	sub	a2,a6,a0
800005b8:	87b2                	mv	a5,a2
800005ba:	00f837b3          	sltu	a5,a6,a5
800005be:	40b886b3          	sub	a3,a7,a1
800005c2:	40f687b3          	sub	a5,a3,a5
800005c6:	86be                	mv	a3,a5
800005c8:	fcc42c23          	sw	a2,-40(s0)
800005cc:	fcd42e23          	sw	a3,-36(s0)
800005d0:	fec42703          	lw	a4,-20(s0)
800005d4:	fdc42783          	lw	a5,-36(s0)
800005d8:	fce7e2e3          	bltu	a5,a4,8000059c <delay_1ms+0x56>
800005dc:	fec42703          	lw	a4,-20(s0)
800005e0:	fdc42783          	lw	a5,-36(s0)
800005e4:	00f71863          	bne	a4,a5,800005f4 <delay_1ms+0xae>
800005e8:	fe842703          	lw	a4,-24(s0)
800005ec:	fd842783          	lw	a5,-40(s0)
800005f0:	fae7e6e3          	bltu	a5,a4,8000059c <delay_1ms+0x56>
800005f4:	0001                	nop
800005f6:	50f2                	lw	ra,60(sp)
800005f8:	5462                	lw	s0,56(sp)
800005fa:	6121                	addi	sp,sp,64
800005fc:	8082                	ret

800005fe <SystemInit>:
800005fe:	1141                	addi	sp,sp,-16
80000600:	c622                	sw	s0,12(sp)
80000602:	0800                	addi	s0,sp,16
80000604:	10000797          	auipc	a5,0x10000
80000608:	a6078793          	addi	a5,a5,-1440 # 90000064 <SystemCoreClock>
8000060c:	04c4b737          	lui	a4,0x4c4b
80000610:	40070713          	addi	a4,a4,1024 # 4c4b400 <__stack_size+0x4c4ac00>
80000614:	c398                	sw	a4,0(a5)
80000616:	0001                	nop
80000618:	4432                	lw	s0,12(sp)
8000061a:	0141                	addi	sp,sp,16
8000061c:	8082                	ret

8000061e <system_default_exception_handler>:
8000061e:	1101                	addi	sp,sp,-32
80000620:	ce06                	sw	ra,28(sp)
80000622:	cc22                	sw	s0,24(sp)
80000624:	1000                	addi	s0,sp,32
80000626:	fea42623          	sw	a0,-20(s0)
8000062a:	feb42423          	sw	a1,-24(s0)
8000062e:	00003517          	auipc	a0,0x3
80000632:	76e50513          	addi	a0,a0,1902 # 80003d9c <_read_r+0x2e>
80000636:	5b8020ef          	jal	ra,80002bee <puts>
8000063a:	fec42583          	lw	a1,-20(s0)
8000063e:	00003517          	auipc	a0,0x3
80000642:	77250513          	addi	a0,a0,1906 # 80003db0 <_read_r+0x42>
80000646:	3ec020ef          	jal	ra,80002a32 <iprintf>
8000064a:	341027f3          	csrr	a5,mepc
8000064e:	80be                	mv	ra,a5
80000650:	8786                	mv	a5,ra
80000652:	85be                	mv	a1,a5
80000654:	00003517          	auipc	a0,0x3
80000658:	76c50513          	addi	a0,a0,1900 # 80003dc0 <_read_r+0x52>
8000065c:	3d6020ef          	jal	ra,80002a32 <iprintf>
80000660:	343027f3          	csrr	a5,mtval
80000664:	80be                	mv	ra,a5
80000666:	8786                	mv	a5,ra
80000668:	85be                	mv	a1,a5
8000066a:	00003517          	auipc	a0,0x3
8000066e:	76650513          	addi	a0,a0,1894 # 80003dd0 <_read_r+0x62>
80000672:	3c0020ef          	jal	ra,80002a32 <iprintf>
80000676:	a001                	j	80000676 <system_default_exception_handler+0x58>

80000678 <system_default_interrupt_handler>:
80000678:	1101                	addi	sp,sp,-32
8000067a:	ce06                	sw	ra,28(sp)
8000067c:	cc22                	sw	s0,24(sp)
8000067e:	1000                	addi	s0,sp,32
80000680:	fea42623          	sw	a0,-20(s0)
80000684:	feb42423          	sw	a1,-24(s0)
80000688:	00003517          	auipc	a0,0x3
8000068c:	75850513          	addi	a0,a0,1880 # 80003de0 <_read_r+0x72>
80000690:	55e020ef          	jal	ra,80002bee <puts>
80000694:	fec42583          	lw	a1,-20(s0)
80000698:	00003517          	auipc	a0,0x3
8000069c:	71850513          	addi	a0,a0,1816 # 80003db0 <_read_r+0x42>
800006a0:	392020ef          	jal	ra,80002a32 <iprintf>
800006a4:	341027f3          	csrr	a5,mepc
800006a8:	80be                	mv	ra,a5
800006aa:	8786                	mv	a5,ra
800006ac:	85be                	mv	a1,a5
800006ae:	00003517          	auipc	a0,0x3
800006b2:	71250513          	addi	a0,a0,1810 # 80003dc0 <_read_r+0x52>
800006b6:	37c020ef          	jal	ra,80002a32 <iprintf>
800006ba:	343027f3          	csrr	a5,mtval
800006be:	80be                	mv	ra,a5
800006c0:	8786                	mv	a5,ra
800006c2:	85be                	mv	a1,a5
800006c4:	00003517          	auipc	a0,0x3
800006c8:	70c50513          	addi	a0,a0,1804 # 80003dd0 <_read_r+0x62>
800006cc:	366020ef          	jal	ra,80002a32 <iprintf>
800006d0:	0001                	nop
800006d2:	40f2                	lw	ra,28(sp)
800006d4:	4462                	lw	s0,24(sp)
800006d6:	6105                	addi	sp,sp,32
800006d8:	8082                	ret

800006da <Exception_Init>:
800006da:	1101                	addi	sp,sp,-32
800006dc:	ce22                	sw	s0,28(sp)
800006de:	1000                	addi	s0,sp,32
800006e0:	fe042623          	sw	zero,-20(s0)
800006e4:	a00d                	j	80000706 <Exception_Init+0x2c>
800006e6:	00000717          	auipc	a4,0x0
800006ea:	f3870713          	addi	a4,a4,-200 # 8000061e <system_default_exception_handler>
800006ee:	84c18693          	addi	a3,gp,-1972 # 900000ac <SystemExceptionHandlers>
800006f2:	fec42783          	lw	a5,-20(s0)
800006f6:	078a                	slli	a5,a5,0x2
800006f8:	97b6                	add	a5,a5,a3
800006fa:	c398                	sw	a4,0(a5)
800006fc:	fec42783          	lw	a5,-20(s0)
80000700:	0785                	addi	a5,a5,1
80000702:	fef42623          	sw	a5,-20(s0)
80000706:	fec42703          	lw	a4,-20(s0)
8000070a:	47a9                	li	a5,10
8000070c:	fce7dde3          	bge	a5,a4,800006e6 <Exception_Init+0xc>
80000710:	0001                	nop
80000712:	0001                	nop
80000714:	4472                	lw	s0,28(sp)
80000716:	6105                	addi	sp,sp,32
80000718:	8082                	ret

8000071a <Interrupt_Init>:
8000071a:	1101                	addi	sp,sp,-32
8000071c:	ce22                	sw	s0,28(sp)
8000071e:	1000                	addi	s0,sp,32
80000720:	fe042623          	sw	zero,-20(s0)
80000724:	a00d                	j	80000746 <Interrupt_Init+0x2c>
80000726:	00000717          	auipc	a4,0x0
8000072a:	f5270713          	addi	a4,a4,-174 # 80000678 <system_default_interrupt_handler>
8000072e:	87818693          	addi	a3,gp,-1928 # 900000d8 <SystemExtInterruptHandlers>
80000732:	fec42783          	lw	a5,-20(s0)
80000736:	078a                	slli	a5,a5,0x2
80000738:	97b6                	add	a5,a5,a3
8000073a:	c398                	sw	a4,0(a5)
8000073c:	fec42783          	lw	a5,-20(s0)
80000740:	0785                	addi	a5,a5,1
80000742:	fef42623          	sw	a5,-20(s0)
80000746:	fec42703          	lw	a4,-20(s0)
8000074a:	47c1                	li	a5,16
8000074c:	fce7dde3          	bge	a5,a4,80000726 <Interrupt_Init+0xc>
80000750:	fe042623          	sw	zero,-20(s0)
80000754:	a00d                	j	80000776 <Interrupt_Init+0x5c>
80000756:	00000717          	auipc	a4,0x0
8000075a:	f2270713          	addi	a4,a4,-222 # 80000678 <system_default_interrupt_handler>
8000075e:	8bc18693          	addi	a3,gp,-1860 # 9000011c <SystemCoreInterruptHandlers>
80000762:	fec42783          	lw	a5,-20(s0)
80000766:	078a                	slli	a5,a5,0x2
80000768:	97b6                	add	a5,a5,a3
8000076a:	c398                	sw	a4,0(a5)
8000076c:	fec42783          	lw	a5,-20(s0)
80000770:	0785                	addi	a5,a5,1
80000772:	fef42623          	sw	a5,-20(s0)
80000776:	fec42703          	lw	a4,-20(s0)
8000077a:	47a5                	li	a5,9
8000077c:	fce7dde3          	bge	a5,a4,80000756 <Interrupt_Init+0x3c>
80000780:	0001                	nop
80000782:	0001                	nop
80000784:	4472                	lw	s0,28(sp)
80000786:	6105                	addi	sp,sp,32
80000788:	8082                	ret

8000078a <core_trap_handler>:
8000078a:	7139                	addi	sp,sp,-64
8000078c:	de06                	sw	ra,60(sp)
8000078e:	dc22                	sw	s0,56(sp)
80000790:	da26                	sw	s1,52(sp)
80000792:	0080                	addi	s0,sp,64
80000794:	fca42623          	sw	a0,-52(s0)
80000798:	fcb42423          	sw	a1,-56(s0)
8000079c:	fcc42783          	lw	a5,-52(s0)
800007a0:	0c07dc63          	bgez	a5,80000878 <core_trap_handler+0xee>
800007a4:	fe042623          	sw	zero,-20(s0)
800007a8:	fcc42703          	lw	a4,-52(s0)
800007ac:	6785                	lui	a5,0x1
800007ae:	17fd                	addi	a5,a5,-1
800007b0:	8ff9                	and	a5,a5,a4
800007b2:	fef42423          	sw	a5,-24(s0)
800007b6:	fe842703          	lw	a4,-24(s0)
800007ba:	47ad                	li	a5,11
800007bc:	08f71963          	bne	a4,a5,8000084e <core_trap_handler+0xc4>
800007c0:	f14027f3          	csrr	a5,mhartid
800007c4:	84be                	mv	s1,a5
800007c6:	87a6                	mv	a5,s1
800007c8:	fef42223          	sw	a5,-28(s0)
800007cc:	fe442783          	lw	a5,-28(s0)
800007d0:	00c79713          	slli	a4,a5,0xc
800007d4:	0c2007b7          	lui	a5,0xc200
800007d8:	0791                	addi	a5,a5,4
800007da:	97ba                	add	a5,a5,a4
800007dc:	fef42023          	sw	a5,-32(s0)
800007e0:	fe042783          	lw	a5,-32(s0)
800007e4:	439c                	lw	a5,0(a5)
800007e6:	fef42423          	sw	a5,-24(s0)
800007ea:	fe842703          	lw	a4,-24(s0)
800007ee:	47c1                	li	a5,16
800007f0:	08e7e263          	bltu	a5,a4,80000874 <core_trap_handler+0xea>
800007f4:	87818713          	addi	a4,gp,-1928 # 900000d8 <SystemExtInterruptHandlers>
800007f8:	fe842783          	lw	a5,-24(s0)
800007fc:	078a                	slli	a5,a5,0x2
800007fe:	97ba                	add	a5,a5,a4
80000800:	439c                	lw	a5,0(a5)
80000802:	fef42623          	sw	a5,-20(s0)
80000806:	fec42783          	lw	a5,-20(s0)
8000080a:	cb81                	beqz	a5,8000081a <core_trap_handler+0x90>
8000080c:	fec42783          	lw	a5,-20(s0)
80000810:	fc842583          	lw	a1,-56(s0)
80000814:	fcc42503          	lw	a0,-52(s0)
80000818:	9782                	jalr	a5
8000081a:	fe842783          	lw	a5,-24(s0)
8000081e:	fcf42e23          	sw	a5,-36(s0)
80000822:	f14027f3          	csrr	a5,mhartid
80000826:	84be                	mv	s1,a5
80000828:	87a6                	mv	a5,s1
8000082a:	fcf42c23          	sw	a5,-40(s0)
8000082e:	fd842783          	lw	a5,-40(s0)
80000832:	00c79713          	slli	a4,a5,0xc
80000836:	0c2007b7          	lui	a5,0xc200
8000083a:	0791                	addi	a5,a5,4
8000083c:	97ba                	add	a5,a5,a4
8000083e:	fcf42a23          	sw	a5,-44(s0)
80000842:	fd442783          	lw	a5,-44(s0)
80000846:	fdc42703          	lw	a4,-36(s0)
8000084a:	c398                	sw	a4,0(a5)
8000084c:	a025                	j	80000874 <core_trap_handler+0xea>
8000084e:	8bc18713          	addi	a4,gp,-1860 # 9000011c <SystemCoreInterruptHandlers>
80000852:	fe842783          	lw	a5,-24(s0)
80000856:	078a                	slli	a5,a5,0x2
80000858:	97ba                	add	a5,a5,a4
8000085a:	439c                	lw	a5,0(a5)
8000085c:	fef42623          	sw	a5,-20(s0)
80000860:	fec42783          	lw	a5,-20(s0)
80000864:	cb81                	beqz	a5,80000874 <core_trap_handler+0xea>
80000866:	fec42783          	lw	a5,-20(s0)
8000086a:	fc842583          	lw	a1,-56(s0)
8000086e:	fcc42503          	lw	a0,-52(s0)
80000872:	9782                	jalr	a5
80000874:	4781                	li	a5,0
80000876:	a039                	j	80000884 <core_trap_handler+0xfa>
80000878:	fc842583          	lw	a1,-56(s0)
8000087c:	fcc42503          	lw	a0,-52(s0)
80000880:	2801                	jal	80000890 <core_exception_handler>
80000882:	87aa                	mv	a5,a0
80000884:	853e                	mv	a0,a5
80000886:	50f2                	lw	ra,60(sp)
80000888:	5462                	lw	s0,56(sp)
8000088a:	54d2                	lw	s1,52(sp)
8000088c:	6121                	addi	sp,sp,64
8000088e:	8082                	ret

80000890 <core_exception_handler>:
80000890:	7179                	addi	sp,sp,-48
80000892:	d606                	sw	ra,44(sp)
80000894:	d422                	sw	s0,40(sp)
80000896:	1800                	addi	s0,sp,48
80000898:	fca42e23          	sw	a0,-36(s0)
8000089c:	fcb42c23          	sw	a1,-40(s0)
800008a0:	fdc42703          	lw	a4,-36(s0)
800008a4:	6785                	lui	a5,0x1
800008a6:	17fd                	addi	a5,a5,-1
800008a8:	8ff9                	and	a5,a5,a4
800008aa:	fef42423          	sw	a5,-24(s0)
800008ae:	fe842703          	lw	a4,-24(s0)
800008b2:	47a9                	li	a5,10
800008b4:	00e7ec63          	bltu	a5,a4,800008cc <core_exception_handler+0x3c>
800008b8:	84c18713          	addi	a4,gp,-1972 # 900000ac <SystemExceptionHandlers>
800008bc:	fe842783          	lw	a5,-24(s0)
800008c0:	078a                	slli	a5,a5,0x2
800008c2:	97ba                	add	a5,a5,a4
800008c4:	439c                	lw	a5,0(a5)
800008c6:	fef42623          	sw	a5,-20(s0)
800008ca:	a039                	j	800008d8 <core_exception_handler+0x48>
800008cc:	00000797          	auipc	a5,0x0
800008d0:	d5278793          	addi	a5,a5,-686 # 8000061e <system_default_exception_handler>
800008d4:	fef42623          	sw	a5,-20(s0)
800008d8:	fec42783          	lw	a5,-20(s0)
800008dc:	cb81                	beqz	a5,800008ec <core_exception_handler+0x5c>
800008de:	fec42783          	lw	a5,-20(s0)
800008e2:	fd842583          	lw	a1,-40(s0)
800008e6:	fdc42503          	lw	a0,-36(s0)
800008ea:	9782                	jalr	a5
800008ec:	4781                	li	a5,0
800008ee:	853e                	mv	a0,a5
800008f0:	50b2                	lw	ra,44(sp)
800008f2:	5422                	lw	s0,40(sp)
800008f4:	6145                	addi	sp,sp,48
800008f6:	8082                	ret

800008f8 <SystemBannerPrint>:
800008f8:	1101                	addi	sp,sp,-32
800008fa:	ce06                	sw	ra,28(sp)
800008fc:	cc22                	sw	s0,24(sp)
800008fe:	1000                	addi	s0,sp,32
80000900:	00003797          	auipc	a5,0x3
80000904:	4f478793          	addi	a5,a5,1268 # 80003df4 <_read_r+0x86>
80000908:	fef42223          	sw	a5,-28(s0)
8000090c:	00003797          	auipc	a5,0x3
80000910:	4f478793          	addi	a5,a5,1268 # 80003e00 <_read_r+0x92>
80000914:	fef42423          	sw	a5,-24(s0)
80000918:	00003797          	auipc	a5,0x3
8000091c:	4f078793          	addi	a5,a5,1264 # 80003e08 <_read_r+0x9a>
80000920:	fef42623          	sw	a5,-20(s0)
80000924:	00003617          	auipc	a2,0x3
80000928:	4e860613          	addi	a2,a2,1256 # 80003e0c <_read_r+0x9e>
8000092c:	00003597          	auipc	a1,0x3
80000930:	4ec58593          	addi	a1,a1,1260 # 80003e18 <_read_r+0xaa>
80000934:	00003517          	auipc	a0,0x3
80000938:	4f050513          	addi	a0,a0,1264 # 80003e24 <_read_r+0xb6>
8000093c:	0f6020ef          	jal	ra,80002a32 <iprintf>
80000940:	fec42783          	lw	a5,-20(s0)
80000944:	85be                	mv	a1,a5
80000946:	00003517          	auipc	a0,0x3
8000094a:	50650513          	addi	a0,a0,1286 # 80003e4c <_read_r+0xde>
8000094e:	0e4020ef          	jal	ra,80002a32 <iprintf>
80000952:	0ffff797          	auipc	a5,0xffff
80000956:	71278793          	addi	a5,a5,1810 # 90000064 <SystemCoreClock>
8000095a:	439c                	lw	a5,0(a5)
8000095c:	85be                	mv	a1,a5
8000095e:	00003517          	auipc	a0,0x3
80000962:	50250513          	addi	a0,a0,1282 # 80003e60 <_read_r+0xf2>
80000966:	0cc020ef          	jal	ra,80002a32 <iprintf>
8000096a:	0001                	nop
8000096c:	40f2                	lw	ra,28(sp)
8000096e:	4462                	lw	s0,24(sp)
80000970:	6105                	addi	sp,sp,32
80000972:	8082                	ret

80000974 <_premain_init>:
80000974:	7139                	addi	sp,sp,-64
80000976:	de06                	sw	ra,60(sp)
80000978:	dc22                	sw	s0,56(sp)
8000097a:	da26                	sw	s1,52(sp)
8000097c:	0080                	addi	s0,sp,64
8000097e:	3655                	jal	80000522 <get_cpu_freq>
80000980:	872a                	mv	a4,a0
80000982:	0ffff797          	auipc	a5,0xffff
80000986:	6e278793          	addi	a5,a5,1762 # 90000064 <SystemCoreClock>
8000098a:	c398                	sw	a4,0(a5)
8000098c:	000305b7          	lui	a1,0x30
80000990:	10012537          	lui	a0,0x10012
80000994:	3a85                	jal	80000304 <gpio_iof_config>
80000996:	67f1                	lui	a5,0x1c
80000998:	20078593          	addi	a1,a5,512 # 1c200 <__stack_size+0x1ba00>
8000099c:	10013537          	lui	a0,0x10013
800009a0:	3245                	jal	80000340 <uart_init>
800009a2:	3f99                	jal	800008f8 <SystemBannerPrint>
800009a4:	3b1d                	jal	800006da <Exception_Init>
800009a6:	3b95                	jal	8000071a <Interrupt_Init>
800009a8:	47c5                	li	a5,17
800009aa:	fef42623          	sw	a5,-20(s0)
800009ae:	fe042423          	sw	zero,-24(s0)
800009b2:	a861                	j	80000a4a <_premain_init+0xd6>
800009b4:	fe842783          	lw	a5,-24(s0)
800009b8:	fef42223          	sw	a5,-28(s0)
800009bc:	f14027f3          	csrr	a5,mhartid
800009c0:	84be                	mv	s1,a5
800009c2:	87a6                	mv	a5,s1
800009c4:	fef42023          	sw	a5,-32(s0)
800009c8:	fe042783          	lw	a5,-32(s0)
800009cc:	00779713          	slli	a4,a5,0x7
800009d0:	fe442783          	lw	a5,-28(s0)
800009d4:	8395                	srli	a5,a5,0x5
800009d6:	078a                	slli	a5,a5,0x2
800009d8:	973e                	add	a4,a4,a5
800009da:	0c0027b7          	lui	a5,0xc002
800009de:	97ba                	add	a5,a5,a4
800009e0:	fcf42e23          	sw	a5,-36(s0)
800009e4:	fdc42783          	lw	a5,-36(s0)
800009e8:	439c                	lw	a5,0(a5)
800009ea:	fcf42c23          	sw	a5,-40(s0)
800009ee:	fe442783          	lw	a5,-28(s0)
800009f2:	8bfd                	andi	a5,a5,31
800009f4:	4705                	li	a4,1
800009f6:	00f717b3          	sll	a5,a4,a5
800009fa:	fff7c793          	not	a5,a5
800009fe:	873e                	mv	a4,a5
80000a00:	fd842783          	lw	a5,-40(s0)
80000a04:	8ff9                	and	a5,a5,a4
80000a06:	fcf42c23          	sw	a5,-40(s0)
80000a0a:	fdc42783          	lw	a5,-36(s0)
80000a0e:	fd842703          	lw	a4,-40(s0)
80000a12:	c398                	sw	a4,0(a5)
80000a14:	0001                	nop
80000a16:	fe842783          	lw	a5,-24(s0)
80000a1a:	fcf42a23          	sw	a5,-44(s0)
80000a1e:	fc042823          	sw	zero,-48(s0)
80000a22:	fd442783          	lw	a5,-44(s0)
80000a26:	00279713          	slli	a4,a5,0x2
80000a2a:	0c0007b7          	lui	a5,0xc000
80000a2e:	97ba                	add	a5,a5,a4
80000a30:	fcf42623          	sw	a5,-52(s0)
80000a34:	fcc42783          	lw	a5,-52(s0)
80000a38:	fd042703          	lw	a4,-48(s0)
80000a3c:	c398                	sw	a4,0(a5)
80000a3e:	0001                	nop
80000a40:	fe842783          	lw	a5,-24(s0)
80000a44:	0785                	addi	a5,a5,1
80000a46:	fef42423          	sw	a5,-24(s0)
80000a4a:	fec42703          	lw	a4,-20(s0)
80000a4e:	fe842783          	lw	a5,-24(s0)
80000a52:	f6e7e1e3          	bltu	a5,a4,800009b4 <_premain_init+0x40>
80000a56:	fc042423          	sw	zero,-56(s0)
80000a5a:	f14027f3          	csrr	a5,mhartid
80000a5e:	84be                	mv	s1,a5
80000a60:	87a6                	mv	a5,s1
80000a62:	fcf42223          	sw	a5,-60(s0)
80000a66:	fc442783          	lw	a5,-60(s0)
80000a6a:	00c79713          	slli	a4,a5,0xc
80000a6e:	0c2007b7          	lui	a5,0xc200
80000a72:	97ba                	add	a5,a5,a4
80000a74:	fcf42023          	sw	a5,-64(s0)
80000a78:	fc042783          	lw	a5,-64(s0)
80000a7c:	fc842703          	lw	a4,-56(s0)
80000a80:	c398                	sw	a4,0(a5)
80000a82:	0001                	nop
80000a84:	0001                	nop
80000a86:	0001                	nop
80000a88:	50f2                	lw	ra,60(sp)
80000a8a:	5462                	lw	s0,56(sp)
80000a8c:	54d2                	lw	s1,52(sp)
80000a8e:	6121                	addi	sp,sp,64
80000a90:	8082                	ret

80000a92 <_postmain_fini>:
80000a92:	1101                	addi	sp,sp,-32
80000a94:	ce22                	sw	s0,28(sp)
80000a96:	1000                	addi	s0,sp,32
80000a98:	fea42623          	sw	a0,-20(s0)
80000a9c:	0001                	nop
80000a9e:	4472                	lw	s0,28(sp)
80000aa0:	6105                	addi	sp,sp,32
80000aa2:	8082                	ret

80000aa4 <_init>:
80000aa4:	1141                	addi	sp,sp,-16
80000aa6:	c622                	sw	s0,12(sp)
80000aa8:	0800                	addi	s0,sp,16
80000aaa:	0001                	nop
80000aac:	4432                	lw	s0,12(sp)
80000aae:	0141                	addi	sp,sp,16
80000ab0:	8082                	ret

80000ab2 <_fini>:
80000ab2:	1141                	addi	sp,sp,-16
80000ab4:	c622                	sw	s0,12(sp)
80000ab6:	0800                	addi	s0,sp,16
80000ab8:	0001                	nop
80000aba:	4432                	lw	s0,12(sp)
80000abc:	0141                	addi	sp,sp,16
80000abe:	8082                	ret

80000ac0 <custom3_aes_encoding_1>:
80000ac0:	7179                	addi	sp,sp,-48
80000ac2:	d622                	sw	s0,44(sp)
80000ac4:	1800                	addi	s0,sp,48
80000ac6:	fca42e23          	sw	a0,-36(s0)
80000aca:	fcb42c23          	sw	a1,-40(s0)
80000ace:	fdc42783          	lw	a5,-36(s0)
80000ad2:	fd842703          	lw	a4,-40(s0)
80000ad6:	00e7e7fb          	0xe7e7fb
80000ada:	fef42623          	sw	a5,-20(s0)
80000ade:	fec42783          	lw	a5,-20(s0)
80000ae2:	853e                	mv	a0,a5
80000ae4:	5432                	lw	s0,44(sp)
80000ae6:	6145                	addi	sp,sp,48
80000ae8:	8082                	ret

80000aea <custom3_aes_encoding_2>:
80000aea:	7179                	addi	sp,sp,-48
80000aec:	d622                	sw	s0,44(sp)
80000aee:	1800                	addi	s0,sp,48
80000af0:	fca42e23          	sw	a0,-36(s0)
80000af4:	fcb42c23          	sw	a1,-40(s0)
80000af8:	fdc42783          	lw	a5,-36(s0)
80000afc:	fd842703          	lw	a4,-40(s0)
80000b00:	02e7e7fb          	0x2e7e7fb
80000b04:	fef42623          	sw	a5,-20(s0)
80000b08:	fec42783          	lw	a5,-20(s0)
80000b0c:	853e                	mv	a0,a5
80000b0e:	5432                	lw	s0,44(sp)
80000b10:	6145                	addi	sp,sp,48
80000b12:	8082                	ret

80000b14 <custom3_aes_encoding_3>:
80000b14:	7179                	addi	sp,sp,-48
80000b16:	d622                	sw	s0,44(sp)
80000b18:	1800                	addi	s0,sp,48
80000b1a:	fca42e23          	sw	a0,-36(s0)
80000b1e:	fcb42c23          	sw	a1,-40(s0)
80000b22:	fdc42783          	lw	a5,-36(s0)
80000b26:	fd842703          	lw	a4,-40(s0)
80000b2a:	04e7e7fb          	0x4e7e7fb
80000b2e:	fef42623          	sw	a5,-20(s0)
80000b32:	fec42783          	lw	a5,-20(s0)
80000b36:	853e                	mv	a0,a5
80000b38:	5432                	lw	s0,44(sp)
80000b3a:	6145                	addi	sp,sp,48
80000b3c:	8082                	ret

80000b3e <custom3_aes_encoding_4>:
80000b3e:	7179                	addi	sp,sp,-48
80000b40:	d622                	sw	s0,44(sp)
80000b42:	1800                	addi	s0,sp,48
80000b44:	fca42e23          	sw	a0,-36(s0)
80000b48:	fcb42c23          	sw	a1,-40(s0)
80000b4c:	fdc42783          	lw	a5,-36(s0)
80000b50:	fd842703          	lw	a4,-40(s0)
80000b54:	06e7e7fb          	0x6e7e7fb
80000b58:	fef42623          	sw	a5,-20(s0)
80000b5c:	fec42783          	lw	a5,-20(s0)
80000b60:	853e                	mv	a0,a5
80000b62:	5432                	lw	s0,44(sp)
80000b64:	6145                	addi	sp,sp,48
80000b66:	8082                	ret

80000b68 <custom3_aes_encoding_choose>:
80000b68:	1101                	addi	sp,sp,-32
80000b6a:	ce06                	sw	ra,28(sp)
80000b6c:	cc22                	sw	s0,24(sp)
80000b6e:	1000                	addi	s0,sp,32
80000b70:	fea42623          	sw	a0,-20(s0)
80000b74:	feb42423          	sw	a1,-24(s0)
80000b78:	fec42223          	sw	a2,-28(s0)
80000b7c:	fe442783          	lw	a5,-28(s0)
80000b80:	eb81                	bnez	a5,80000b90 <custom3_aes_encoding_choose+0x28>
80000b82:	fe842583          	lw	a1,-24(s0)
80000b86:	fec42503          	lw	a0,-20(s0)
80000b8a:	3f1d                	jal	80000ac0 <custom3_aes_encoding_1>
80000b8c:	87aa                	mv	a5,a0
80000b8e:	a0b1                	j	80000bda <custom3_aes_encoding_choose+0x72>
80000b90:	fe442703          	lw	a4,-28(s0)
80000b94:	4785                	li	a5,1
80000b96:	00f71963          	bne	a4,a5,80000ba8 <custom3_aes_encoding_choose+0x40>
80000b9a:	fe842583          	lw	a1,-24(s0)
80000b9e:	fec42503          	lw	a0,-20(s0)
80000ba2:	37a1                	jal	80000aea <custom3_aes_encoding_2>
80000ba4:	87aa                	mv	a5,a0
80000ba6:	a815                	j	80000bda <custom3_aes_encoding_choose+0x72>
80000ba8:	fe442703          	lw	a4,-28(s0)
80000bac:	4789                	li	a5,2
80000bae:	00f71963          	bne	a4,a5,80000bc0 <custom3_aes_encoding_choose+0x58>
80000bb2:	fe842583          	lw	a1,-24(s0)
80000bb6:	fec42503          	lw	a0,-20(s0)
80000bba:	3fa9                	jal	80000b14 <custom3_aes_encoding_3>
80000bbc:	87aa                	mv	a5,a0
80000bbe:	a831                	j	80000bda <custom3_aes_encoding_choose+0x72>
80000bc0:	fe442703          	lw	a4,-28(s0)
80000bc4:	478d                	li	a5,3
80000bc6:	00f71963          	bne	a4,a5,80000bd8 <custom3_aes_encoding_choose+0x70>
80000bca:	fe842583          	lw	a1,-24(s0)
80000bce:	fec42503          	lw	a0,-20(s0)
80000bd2:	37b5                	jal	80000b3e <custom3_aes_encoding_4>
80000bd4:	87aa                	mv	a5,a0
80000bd6:	a011                	j	80000bda <custom3_aes_encoding_choose+0x72>
80000bd8:	4781                	li	a5,0
80000bda:	853e                	mv	a0,a5
80000bdc:	40f2                	lw	ra,28(sp)
80000bde:	4462                	lw	s0,24(sp)
80000be0:	6105                	addi	sp,sp,32
80000be2:	8082                	ret

80000be4 <custom3_aes_spe_encoding_1>:
80000be4:	7179                	addi	sp,sp,-48
80000be6:	d622                	sw	s0,44(sp)
80000be8:	1800                	addi	s0,sp,48
80000bea:	fca42e23          	sw	a0,-36(s0)
80000bee:	fcb42c23          	sw	a1,-40(s0)
80000bf2:	fdc42783          	lw	a5,-36(s0)
80000bf6:	fd842703          	lw	a4,-40(s0)
80000bfa:	08e7e7fb          	0x8e7e7fb
80000bfe:	fef42623          	sw	a5,-20(s0)
80000c02:	fec42783          	lw	a5,-20(s0)
80000c06:	853e                	mv	a0,a5
80000c08:	5432                	lw	s0,44(sp)
80000c0a:	6145                	addi	sp,sp,48
80000c0c:	8082                	ret

80000c0e <custom3_aes_spe_encoding_2>:
80000c0e:	7179                	addi	sp,sp,-48
80000c10:	d622                	sw	s0,44(sp)
80000c12:	1800                	addi	s0,sp,48
80000c14:	fca42e23          	sw	a0,-36(s0)
80000c18:	fcb42c23          	sw	a1,-40(s0)
80000c1c:	fdc42783          	lw	a5,-36(s0)
80000c20:	fd842703          	lw	a4,-40(s0)
80000c24:	0ae7e7fb          	0xae7e7fb
80000c28:	fef42623          	sw	a5,-20(s0)
80000c2c:	fec42783          	lw	a5,-20(s0)
80000c30:	853e                	mv	a0,a5
80000c32:	5432                	lw	s0,44(sp)
80000c34:	6145                	addi	sp,sp,48
80000c36:	8082                	ret

80000c38 <custom3_aes_spe_encoding_3>:
80000c38:	7179                	addi	sp,sp,-48
80000c3a:	d622                	sw	s0,44(sp)
80000c3c:	1800                	addi	s0,sp,48
80000c3e:	fca42e23          	sw	a0,-36(s0)
80000c42:	fcb42c23          	sw	a1,-40(s0)
80000c46:	fdc42783          	lw	a5,-36(s0)
80000c4a:	fd842703          	lw	a4,-40(s0)
80000c4e:	0ce7e7fb          	0xce7e7fb
80000c52:	fef42623          	sw	a5,-20(s0)
80000c56:	fec42783          	lw	a5,-20(s0)
80000c5a:	853e                	mv	a0,a5
80000c5c:	5432                	lw	s0,44(sp)
80000c5e:	6145                	addi	sp,sp,48
80000c60:	8082                	ret

80000c62 <custom3_aes_spe_encoding_4>:
80000c62:	7179                	addi	sp,sp,-48
80000c64:	d622                	sw	s0,44(sp)
80000c66:	1800                	addi	s0,sp,48
80000c68:	fca42e23          	sw	a0,-36(s0)
80000c6c:	fcb42c23          	sw	a1,-40(s0)
80000c70:	fdc42783          	lw	a5,-36(s0)
80000c74:	fd842703          	lw	a4,-40(s0)
80000c78:	0ee7e7fb          	0xee7e7fb
80000c7c:	fef42623          	sw	a5,-20(s0)
80000c80:	fec42783          	lw	a5,-20(s0)
80000c84:	853e                	mv	a0,a5
80000c86:	5432                	lw	s0,44(sp)
80000c88:	6145                	addi	sp,sp,48
80000c8a:	8082                	ret

80000c8c <custom3_aes_spe_encoding_choose>:
80000c8c:	1101                	addi	sp,sp,-32
80000c8e:	ce06                	sw	ra,28(sp)
80000c90:	cc22                	sw	s0,24(sp)
80000c92:	1000                	addi	s0,sp,32
80000c94:	fea42623          	sw	a0,-20(s0)
80000c98:	feb42423          	sw	a1,-24(s0)
80000c9c:	fec42223          	sw	a2,-28(s0)
80000ca0:	fe442783          	lw	a5,-28(s0)
80000ca4:	eb81                	bnez	a5,80000cb4 <custom3_aes_spe_encoding_choose+0x28>
80000ca6:	fe842583          	lw	a1,-24(s0)
80000caa:	fec42503          	lw	a0,-20(s0)
80000cae:	3f1d                	jal	80000be4 <custom3_aes_spe_encoding_1>
80000cb0:	87aa                	mv	a5,a0
80000cb2:	a0b1                	j	80000cfe <custom3_aes_spe_encoding_choose+0x72>
80000cb4:	fe442703          	lw	a4,-28(s0)
80000cb8:	4785                	li	a5,1
80000cba:	00f71963          	bne	a4,a5,80000ccc <custom3_aes_spe_encoding_choose+0x40>
80000cbe:	fe842583          	lw	a1,-24(s0)
80000cc2:	fec42503          	lw	a0,-20(s0)
80000cc6:	37a1                	jal	80000c0e <custom3_aes_spe_encoding_2>
80000cc8:	87aa                	mv	a5,a0
80000cca:	a815                	j	80000cfe <custom3_aes_spe_encoding_choose+0x72>
80000ccc:	fe442703          	lw	a4,-28(s0)
80000cd0:	4789                	li	a5,2
80000cd2:	00f71963          	bne	a4,a5,80000ce4 <custom3_aes_spe_encoding_choose+0x58>
80000cd6:	fe842583          	lw	a1,-24(s0)
80000cda:	fec42503          	lw	a0,-20(s0)
80000cde:	3fa9                	jal	80000c38 <custom3_aes_spe_encoding_3>
80000ce0:	87aa                	mv	a5,a0
80000ce2:	a831                	j	80000cfe <custom3_aes_spe_encoding_choose+0x72>
80000ce4:	fe442703          	lw	a4,-28(s0)
80000ce8:	478d                	li	a5,3
80000cea:	00f71963          	bne	a4,a5,80000cfc <custom3_aes_spe_encoding_choose+0x70>
80000cee:	fe842583          	lw	a1,-24(s0)
80000cf2:	fec42503          	lw	a0,-20(s0)
80000cf6:	37b5                	jal	80000c62 <custom3_aes_spe_encoding_4>
80000cf8:	87aa                	mv	a5,a0
80000cfa:	a011                	j	80000cfe <custom3_aes_spe_encoding_choose+0x72>
80000cfc:	4781                	li	a5,0
80000cfe:	853e                	mv	a0,a5
80000d00:	40f2                	lw	ra,28(sp)
80000d02:	4462                	lw	s0,24(sp)
80000d04:	6105                	addi	sp,sp,32
80000d06:	8082                	ret

80000d08 <pt_extract>:
80000d08:	7179                	addi	sp,sp,-48
80000d0a:	d622                	sw	s0,44(sp)
80000d0c:	1800                	addi	s0,sp,48
80000d0e:	fca42e23          	sw	a0,-36(s0)
80000d12:	fcb42c23          	sw	a1,-40(s0)
80000d16:	fe042623          	sw	zero,-20(s0)
80000d1a:	fd842783          	lw	a5,-40(s0)
80000d1e:	078a                	slli	a5,a5,0x2
80000d20:	078d                	addi	a5,a5,3
80000d22:	fdc42703          	lw	a4,-36(s0)
80000d26:	97ba                	add	a5,a5,a4
80000d28:	0007c783          	lbu	a5,0(a5) # c200000 <__stack_size+0xc1ff800>
80000d2c:	01879713          	slli	a4,a5,0x18
80000d30:	fd842783          	lw	a5,-40(s0)
80000d34:	078a                	slli	a5,a5,0x2
80000d36:	0789                	addi	a5,a5,2
80000d38:	fdc42683          	lw	a3,-36(s0)
80000d3c:	97b6                	add	a5,a5,a3
80000d3e:	0007c783          	lbu	a5,0(a5)
80000d42:	07c2                	slli	a5,a5,0x10
80000d44:	973e                	add	a4,a4,a5
80000d46:	fd842783          	lw	a5,-40(s0)
80000d4a:	078a                	slli	a5,a5,0x2
80000d4c:	0785                	addi	a5,a5,1
80000d4e:	fdc42683          	lw	a3,-36(s0)
80000d52:	97b6                	add	a5,a5,a3
80000d54:	0007c783          	lbu	a5,0(a5)
80000d58:	07a2                	slli	a5,a5,0x8
80000d5a:	97ba                	add	a5,a5,a4
80000d5c:	fd842703          	lw	a4,-40(s0)
80000d60:	070a                	slli	a4,a4,0x2
80000d62:	86ba                	mv	a3,a4
80000d64:	fdc42703          	lw	a4,-36(s0)
80000d68:	9736                	add	a4,a4,a3
80000d6a:	00074703          	lbu	a4,0(a4)
80000d6e:	97ba                	add	a5,a5,a4
80000d70:	fef42623          	sw	a5,-20(s0)
80000d74:	fec42783          	lw	a5,-20(s0)
80000d78:	853e                	mv	a0,a5
80000d7a:	5432                	lw	s0,44(sp)
80000d7c:	6145                	addi	sp,sp,48
80000d7e:	8082                	ret

80000d80 <key_insert>:
80000d80:	7139                	addi	sp,sp,-64
80000d82:	de22                	sw	s0,60(sp)
80000d84:	0080                	addi	s0,sp,64
80000d86:	fca42e23          	sw	a0,-36(s0)
80000d8a:	fcb42c23          	sw	a1,-40(s0)
80000d8e:	fcc42a23          	sw	a2,-44(s0)
80000d92:	fcd42823          	sw	a3,-48(s0)
80000d96:	fce42623          	sw	a4,-52(s0)
80000d9a:	fe042623          	sw	zero,-20(s0)
80000d9e:	a85d                	j	80000e54 <key_insert+0xd4>
80000da0:	fec42703          	lw	a4,-20(s0)
80000da4:	478d                	li	a5,3
80000da6:	02e7c363          	blt	a5,a4,80000dcc <key_insert+0x4c>
80000daa:	fec42783          	lw	a5,-20(s0)
80000dae:	078e                	slli	a5,a5,0x3
80000db0:	fdc42703          	lw	a4,-36(s0)
80000db4:	00f756b3          	srl	a3,a4,a5
80000db8:	fec42783          	lw	a5,-20(s0)
80000dbc:	fcc42703          	lw	a4,-52(s0)
80000dc0:	97ba                	add	a5,a5,a4
80000dc2:	0ff6f713          	andi	a4,a3,255
80000dc6:	00e78023          	sb	a4,0(a5)
80000dca:	a041                	j	80000e4a <key_insert+0xca>
80000dcc:	fec42703          	lw	a4,-20(s0)
80000dd0:	479d                	li	a5,7
80000dd2:	02e7c463          	blt	a5,a4,80000dfa <key_insert+0x7a>
80000dd6:	fec42783          	lw	a5,-20(s0)
80000dda:	17f1                	addi	a5,a5,-4
80000ddc:	078e                	slli	a5,a5,0x3
80000dde:	fd842703          	lw	a4,-40(s0)
80000de2:	00f756b3          	srl	a3,a4,a5
80000de6:	fec42783          	lw	a5,-20(s0)
80000dea:	fcc42703          	lw	a4,-52(s0)
80000dee:	97ba                	add	a5,a5,a4
80000df0:	0ff6f713          	andi	a4,a3,255
80000df4:	00e78023          	sb	a4,0(a5)
80000df8:	a889                	j	80000e4a <key_insert+0xca>
80000dfa:	fec42703          	lw	a4,-20(s0)
80000dfe:	47ad                	li	a5,11
80000e00:	02e7c463          	blt	a5,a4,80000e28 <key_insert+0xa8>
80000e04:	fec42783          	lw	a5,-20(s0)
80000e08:	17e1                	addi	a5,a5,-8
80000e0a:	078e                	slli	a5,a5,0x3
80000e0c:	fd442703          	lw	a4,-44(s0)
80000e10:	00f756b3          	srl	a3,a4,a5
80000e14:	fec42783          	lw	a5,-20(s0)
80000e18:	fcc42703          	lw	a4,-52(s0)
80000e1c:	97ba                	add	a5,a5,a4
80000e1e:	0ff6f713          	andi	a4,a3,255
80000e22:	00e78023          	sb	a4,0(a5)
80000e26:	a015                	j	80000e4a <key_insert+0xca>
80000e28:	fec42783          	lw	a5,-20(s0)
80000e2c:	17d1                	addi	a5,a5,-12
80000e2e:	078e                	slli	a5,a5,0x3
80000e30:	fd042703          	lw	a4,-48(s0)
80000e34:	00f756b3          	srl	a3,a4,a5
80000e38:	fec42783          	lw	a5,-20(s0)
80000e3c:	fcc42703          	lw	a4,-52(s0)
80000e40:	97ba                	add	a5,a5,a4
80000e42:	0ff6f713          	andi	a4,a3,255
80000e46:	00e78023          	sb	a4,0(a5)
80000e4a:	fec42783          	lw	a5,-20(s0)
80000e4e:	0785                	addi	a5,a5,1
80000e50:	fef42623          	sw	a5,-20(s0)
80000e54:	fec42703          	lw	a4,-20(s0)
80000e58:	47bd                	li	a5,15
80000e5a:	f4e7d3e3          	bge	a5,a4,80000da0 <key_insert+0x20>
80000e5e:	0001                	nop
80000e60:	0001                	nop
80000e62:	5472                	lw	s0,60(sp)
80000e64:	6121                	addi	sp,sp,64
80000e66:	8082                	ret

80000e68 <aes_key_cir>:
80000e68:	715d                	addi	sp,sp,-80
80000e6a:	c686                	sw	ra,76(sp)
80000e6c:	c4a2                	sw	s0,72(sp)
80000e6e:	0880                	addi	s0,sp,80
80000e70:	faa42e23          	sw	a0,-68(s0)
80000e74:	4581                	li	a1,0
80000e76:	fbc42503          	lw	a0,-68(s0)
80000e7a:	3579                	jal	80000d08 <pt_extract>
80000e7c:	fea42623          	sw	a0,-20(s0)
80000e80:	4585                	li	a1,1
80000e82:	fbc42503          	lw	a0,-68(s0)
80000e86:	3549                	jal	80000d08 <pt_extract>
80000e88:	fea42423          	sw	a0,-24(s0)
80000e8c:	4589                	li	a1,2
80000e8e:	fbc42503          	lw	a0,-68(s0)
80000e92:	3d9d                	jal	80000d08 <pt_extract>
80000e94:	fea42223          	sw	a0,-28(s0)
80000e98:	458d                	li	a1,3
80000e9a:	fbc42503          	lw	a0,-68(s0)
80000e9e:	35ad                	jal	80000d08 <pt_extract>
80000ea0:	fea42023          	sw	a0,-32(s0)
80000ea4:	fc042c23          	sw	zero,-40(s0)
80000ea8:	fc042a23          	sw	zero,-44(s0)
80000eac:	fc042823          	sw	zero,-48(s0)
80000eb0:	080407b7          	lui	a5,0x8040
80000eb4:	20178793          	addi	a5,a5,513 # 8040201 <__stack_size+0x803fa01>
80000eb8:	fcf42223          	sw	a5,-60(s0)
80000ebc:	804027b7          	lui	a5,0x80402
80000ec0:	07c1                	addi	a5,a5,16
80000ec2:	fcf42423          	sw	a5,-56(s0)
80000ec6:	678d                	lui	a5,0x3
80000ec8:	61b78793          	addi	a5,a5,1563 # 361b <__stack_size+0x2e1b>
80000ecc:	fcf41623          	sh	a5,-52(s0)
80000ed0:	fc042e23          	sw	zero,-36(s0)
80000ed4:	aa65                	j	8000108c <aes_key_cir+0x224>
80000ed6:	fdc42783          	lw	a5,-36(s0)
80000eda:	ff040713          	addi	a4,s0,-16
80000ede:	97ba                	add	a5,a5,a4
80000ee0:	fd47c783          	lbu	a5,-44(a5)
80000ee4:	873e                	mv	a4,a5
80000ee6:	fec42783          	lw	a5,-20(s0)
80000eea:	8fb9                	xor	a5,a5,a4
80000eec:	fef42623          	sw	a5,-20(s0)
80000ef0:	fe042783          	lw	a5,-32(s0)
80000ef4:	07e2                	slli	a5,a5,0x18
80000ef6:	fcf42c23          	sw	a5,-40(s0)
80000efa:	fe042783          	lw	a5,-32(s0)
80000efe:	83a1                	srli	a5,a5,0x8
80000f00:	fcf42a23          	sw	a5,-44(s0)
80000f04:	fd842703          	lw	a4,-40(s0)
80000f08:	fd442783          	lw	a5,-44(s0)
80000f0c:	97ba                	add	a5,a5,a4
80000f0e:	fcf42823          	sw	a5,-48(s0)
80000f12:	4601                	li	a2,0
80000f14:	fd042583          	lw	a1,-48(s0)
80000f18:	fec42503          	lw	a0,-20(s0)
80000f1c:	3b85                	jal	80000c8c <custom3_aes_spe_encoding_choose>
80000f1e:	fea42623          	sw	a0,-20(s0)
80000f22:	4605                	li	a2,1
80000f24:	fd042583          	lw	a1,-48(s0)
80000f28:	fec42503          	lw	a0,-20(s0)
80000f2c:	3385                	jal	80000c8c <custom3_aes_spe_encoding_choose>
80000f2e:	fea42623          	sw	a0,-20(s0)
80000f32:	4609                	li	a2,2
80000f34:	fd042583          	lw	a1,-48(s0)
80000f38:	fec42503          	lw	a0,-20(s0)
80000f3c:	3b81                	jal	80000c8c <custom3_aes_spe_encoding_choose>
80000f3e:	fea42623          	sw	a0,-20(s0)
80000f42:	460d                	li	a2,3
80000f44:	fd042583          	lw	a1,-48(s0)
80000f48:	fec42503          	lw	a0,-20(s0)
80000f4c:	3381                	jal	80000c8c <custom3_aes_spe_encoding_choose>
80000f4e:	fea42623          	sw	a0,-20(s0)
80000f52:	fe842703          	lw	a4,-24(s0)
80000f56:	fec42783          	lw	a5,-20(s0)
80000f5a:	8fb9                	xor	a5,a5,a4
80000f5c:	fef42423          	sw	a5,-24(s0)
80000f60:	fe442703          	lw	a4,-28(s0)
80000f64:	fe842783          	lw	a5,-24(s0)
80000f68:	8fb9                	xor	a5,a5,a4
80000f6a:	fef42223          	sw	a5,-28(s0)
80000f6e:	fe042703          	lw	a4,-32(s0)
80000f72:	fe442783          	lw	a5,-28(s0)
80000f76:	8fb9                	xor	a5,a5,a4
80000f78:	fef42023          	sw	a5,-32(s0)
80000f7c:	fdc42703          	lw	a4,-36(s0)
80000f80:	47a5                	li	a5,9
80000f82:	10e7e063          	bltu	a5,a4,80001082 <aes_key_cir+0x21a>
80000f86:	fdc42783          	lw	a5,-36(s0)
80000f8a:	00279713          	slli	a4,a5,0x2
80000f8e:	00003797          	auipc	a5,0x3
80000f92:	eea78793          	addi	a5,a5,-278 # 80003e78 <_read_r+0x10a>
80000f96:	97ba                	add	a5,a5,a4
80000f98:	4398                	lw	a4,0(a5)
80000f9a:	00003797          	auipc	a5,0x3
80000f9e:	ede78793          	addi	a5,a5,-290 # 80003e78 <_read_r+0x10a>
80000fa2:	97ba                	add	a5,a5,a4
80000fa4:	8782                	jr	a5
80000fa6:	8e418713          	addi	a4,gp,-1820 # 90000144 <key2>
80000faa:	fe042683          	lw	a3,-32(s0)
80000fae:	fe442603          	lw	a2,-28(s0)
80000fb2:	fe842583          	lw	a1,-24(s0)
80000fb6:	fec42503          	lw	a0,-20(s0)
80000fba:	33d9                	jal	80000d80 <key_insert>
80000fbc:	8f418713          	addi	a4,gp,-1804 # 90000154 <key3>
80000fc0:	fe042683          	lw	a3,-32(s0)
80000fc4:	fe442603          	lw	a2,-28(s0)
80000fc8:	fe842583          	lw	a1,-24(s0)
80000fcc:	fec42503          	lw	a0,-20(s0)
80000fd0:	3b45                	jal	80000d80 <key_insert>
80000fd2:	90418713          	addi	a4,gp,-1788 # 90000164 <key4>
80000fd6:	fe042683          	lw	a3,-32(s0)
80000fda:	fe442603          	lw	a2,-28(s0)
80000fde:	fe842583          	lw	a1,-24(s0)
80000fe2:	fec42503          	lw	a0,-20(s0)
80000fe6:	3b69                	jal	80000d80 <key_insert>
80000fe8:	91418713          	addi	a4,gp,-1772 # 90000174 <key5>
80000fec:	fe042683          	lw	a3,-32(s0)
80000ff0:	fe442603          	lw	a2,-28(s0)
80000ff4:	fe842583          	lw	a1,-24(s0)
80000ff8:	fec42503          	lw	a0,-20(s0)
80000ffc:	3351                	jal	80000d80 <key_insert>
80000ffe:	92418713          	addi	a4,gp,-1756 # 90000184 <key6>
80001002:	fe042683          	lw	a3,-32(s0)
80001006:	fe442603          	lw	a2,-28(s0)
8000100a:	fe842583          	lw	a1,-24(s0)
8000100e:	fec42503          	lw	a0,-20(s0)
80001012:	33bd                	jal	80000d80 <key_insert>
80001014:	93418713          	addi	a4,gp,-1740 # 90000194 <key7>
80001018:	fe042683          	lw	a3,-32(s0)
8000101c:	fe442603          	lw	a2,-28(s0)
80001020:	fe842583          	lw	a1,-24(s0)
80001024:	fec42503          	lw	a0,-20(s0)
80001028:	3ba1                	jal	80000d80 <key_insert>
8000102a:	94418713          	addi	a4,gp,-1724 # 900001a4 <key8>
8000102e:	fe042683          	lw	a3,-32(s0)
80001032:	fe442603          	lw	a2,-28(s0)
80001036:	fe842583          	lw	a1,-24(s0)
8000103a:	fec42503          	lw	a0,-20(s0)
8000103e:	3389                	jal	80000d80 <key_insert>
80001040:	95418713          	addi	a4,gp,-1708 # 900001b4 <key9>
80001044:	fe042683          	lw	a3,-32(s0)
80001048:	fe442603          	lw	a2,-28(s0)
8000104c:	fe842583          	lw	a1,-24(s0)
80001050:	fec42503          	lw	a0,-20(s0)
80001054:	3335                	jal	80000d80 <key_insert>
80001056:	96418713          	addi	a4,gp,-1692 # 900001c4 <key10>
8000105a:	fe042683          	lw	a3,-32(s0)
8000105e:	fe442603          	lw	a2,-28(s0)
80001062:	fe842583          	lw	a1,-24(s0)
80001066:	fec42503          	lw	a0,-20(s0)
8000106a:	3b19                	jal	80000d80 <key_insert>
8000106c:	97418713          	addi	a4,gp,-1676 # 900001d4 <key11>
80001070:	fe042683          	lw	a3,-32(s0)
80001074:	fe442603          	lw	a2,-28(s0)
80001078:	fe842583          	lw	a1,-24(s0)
8000107c:	fec42503          	lw	a0,-20(s0)
80001080:	3301                	jal	80000d80 <key_insert>
80001082:	fdc42783          	lw	a5,-36(s0)
80001086:	0785                	addi	a5,a5,1
80001088:	fcf42e23          	sw	a5,-36(s0)
8000108c:	fdc42703          	lw	a4,-36(s0)
80001090:	47a5                	li	a5,9
80001092:	e4e7d2e3          	bge	a5,a4,80000ed6 <aes_key_cir+0x6e>
80001096:	0001                	nop
80001098:	0001                	nop
8000109a:	40b6                	lw	ra,76(sp)
8000109c:	4426                	lw	s0,72(sp)
8000109e:	6161                	addi	sp,sp,80
800010a0:	8082                	ret

800010a2 <before_cir_xor>:
800010a2:	1101                	addi	sp,sp,-32
800010a4:	ce06                	sw	ra,28(sp)
800010a6:	cc22                	sw	s0,24(sp)
800010a8:	ca26                	sw	s1,20(sp)
800010aa:	1000                	addi	s0,sp,32
800010ac:	fea42623          	sw	a0,-20(s0)
800010b0:	feb42423          	sw	a1,-24(s0)
800010b4:	4581                	li	a1,0
800010b6:	fec42503          	lw	a0,-20(s0)
800010ba:	31b9                	jal	80000d08 <pt_extract>
800010bc:	84aa                	mv	s1,a0
800010be:	4581                	li	a1,0
800010c0:	fe842503          	lw	a0,-24(s0)
800010c4:	3191                	jal	80000d08 <pt_extract>
800010c6:	87aa                	mv	a5,a0
800010c8:	00f4c733          	xor	a4,s1,a5
800010cc:	83018793          	addi	a5,gp,-2000 # 90000090 <cir1_rs2_1>
800010d0:	c398                	sw	a4,0(a5)
800010d2:	4585                	li	a1,1
800010d4:	fec42503          	lw	a0,-20(s0)
800010d8:	3905                	jal	80000d08 <pt_extract>
800010da:	84aa                	mv	s1,a0
800010dc:	4585                	li	a1,1
800010de:	fe842503          	lw	a0,-24(s0)
800010e2:	311d                	jal	80000d08 <pt_extract>
800010e4:	87aa                	mv	a5,a0
800010e6:	00f4c733          	xor	a4,s1,a5
800010ea:	83418793          	addi	a5,gp,-1996 # 90000094 <cir1_rs2_2>
800010ee:	c398                	sw	a4,0(a5)
800010f0:	4589                	li	a1,2
800010f2:	fec42503          	lw	a0,-20(s0)
800010f6:	3909                	jal	80000d08 <pt_extract>
800010f8:	84aa                	mv	s1,a0
800010fa:	4589                	li	a1,2
800010fc:	fe842503          	lw	a0,-24(s0)
80001100:	3121                	jal	80000d08 <pt_extract>
80001102:	87aa                	mv	a5,a0
80001104:	00f4c733          	xor	a4,s1,a5
80001108:	83818793          	addi	a5,gp,-1992 # 90000098 <cir1_rs2_3>
8000110c:	c398                	sw	a4,0(a5)
8000110e:	458d                	li	a1,3
80001110:	fec42503          	lw	a0,-20(s0)
80001114:	3ed5                	jal	80000d08 <pt_extract>
80001116:	84aa                	mv	s1,a0
80001118:	458d                	li	a1,3
8000111a:	fe842503          	lw	a0,-24(s0)
8000111e:	36ed                	jal	80000d08 <pt_extract>
80001120:	87aa                	mv	a5,a0
80001122:	00f4c733          	xor	a4,s1,a5
80001126:	83c18793          	addi	a5,gp,-1988 # 9000009c <cir1_rs2_4>
8000112a:	c398                	sw	a4,0(a5)
8000112c:	0001                	nop
8000112e:	40f2                	lw	ra,28(sp)
80001130:	4462                	lw	s0,24(sp)
80001132:	44d2                	lw	s1,20(sp)
80001134:	6105                	addi	sp,sp,32
80001136:	8082                	ret

80001138 <aes_cir_odd>:
80001138:	7179                	addi	sp,sp,-48
8000113a:	d606                	sw	ra,44(sp)
8000113c:	d422                	sw	s0,40(sp)
8000113e:	1800                	addi	s0,sp,48
80001140:	fea42623          	sw	a0,-20(s0)
80001144:	feb42423          	sw	a1,-24(s0)
80001148:	fec42223          	sw	a2,-28(s0)
8000114c:	fed42023          	sw	a3,-32(s0)
80001150:	fce42e23          	sw	a4,-36(s0)
80001154:	4581                	li	a1,0
80001156:	fec42503          	lw	a0,-20(s0)
8000115a:	367d                	jal	80000d08 <pt_extract>
8000115c:	87aa                	mv	a5,a0
8000115e:	4601                	li	a2,0
80001160:	fe842583          	lw	a1,-24(s0)
80001164:	853e                	mv	a0,a5
80001166:	3409                	jal	80000b68 <custom3_aes_encoding_choose>
80001168:	872a                	mv	a4,a0
8000116a:	81018793          	addi	a5,gp,-2032 # 90000070 <cir_rd_1>
8000116e:	c398                	sw	a4,0(a5)
80001170:	81018793          	addi	a5,gp,-2032 # 90000070 <cir_rd_1>
80001174:	439c                	lw	a5,0(a5)
80001176:	4605                	li	a2,1
80001178:	fe442583          	lw	a1,-28(s0)
8000117c:	853e                	mv	a0,a5
8000117e:	32ed                	jal	80000b68 <custom3_aes_encoding_choose>
80001180:	872a                	mv	a4,a0
80001182:	81018793          	addi	a5,gp,-2032 # 90000070 <cir_rd_1>
80001186:	c398                	sw	a4,0(a5)
80001188:	81018793          	addi	a5,gp,-2032 # 90000070 <cir_rd_1>
8000118c:	439c                	lw	a5,0(a5)
8000118e:	4609                	li	a2,2
80001190:	fe042583          	lw	a1,-32(s0)
80001194:	853e                	mv	a0,a5
80001196:	3ac9                	jal	80000b68 <custom3_aes_encoding_choose>
80001198:	872a                	mv	a4,a0
8000119a:	81018793          	addi	a5,gp,-2032 # 90000070 <cir_rd_1>
8000119e:	c398                	sw	a4,0(a5)
800011a0:	81018793          	addi	a5,gp,-2032 # 90000070 <cir_rd_1>
800011a4:	439c                	lw	a5,0(a5)
800011a6:	460d                	li	a2,3
800011a8:	fdc42583          	lw	a1,-36(s0)
800011ac:	853e                	mv	a0,a5
800011ae:	3a6d                	jal	80000b68 <custom3_aes_encoding_choose>
800011b0:	872a                	mv	a4,a0
800011b2:	81018793          	addi	a5,gp,-2032 # 90000070 <cir_rd_1>
800011b6:	c398                	sw	a4,0(a5)
800011b8:	4585                	li	a1,1
800011ba:	fec42503          	lw	a0,-20(s0)
800011be:	36a9                	jal	80000d08 <pt_extract>
800011c0:	87aa                	mv	a5,a0
800011c2:	4601                	li	a2,0
800011c4:	fe442583          	lw	a1,-28(s0)
800011c8:	853e                	mv	a0,a5
800011ca:	99fff0ef          	jal	ra,80000b68 <custom3_aes_encoding_choose>
800011ce:	872a                	mv	a4,a0
800011d0:	81418793          	addi	a5,gp,-2028 # 90000074 <cir_rd_2>
800011d4:	c398                	sw	a4,0(a5)
800011d6:	81418793          	addi	a5,gp,-2028 # 90000074 <cir_rd_2>
800011da:	439c                	lw	a5,0(a5)
800011dc:	4605                	li	a2,1
800011de:	fe042583          	lw	a1,-32(s0)
800011e2:	853e                	mv	a0,a5
800011e4:	985ff0ef          	jal	ra,80000b68 <custom3_aes_encoding_choose>
800011e8:	872a                	mv	a4,a0
800011ea:	81418793          	addi	a5,gp,-2028 # 90000074 <cir_rd_2>
800011ee:	c398                	sw	a4,0(a5)
800011f0:	81418793          	addi	a5,gp,-2028 # 90000074 <cir_rd_2>
800011f4:	439c                	lw	a5,0(a5)
800011f6:	4609                	li	a2,2
800011f8:	fdc42583          	lw	a1,-36(s0)
800011fc:	853e                	mv	a0,a5
800011fe:	96bff0ef          	jal	ra,80000b68 <custom3_aes_encoding_choose>
80001202:	872a                	mv	a4,a0
80001204:	81418793          	addi	a5,gp,-2028 # 90000074 <cir_rd_2>
80001208:	c398                	sw	a4,0(a5)
8000120a:	81418793          	addi	a5,gp,-2028 # 90000074 <cir_rd_2>
8000120e:	439c                	lw	a5,0(a5)
80001210:	460d                	li	a2,3
80001212:	fe842583          	lw	a1,-24(s0)
80001216:	853e                	mv	a0,a5
80001218:	951ff0ef          	jal	ra,80000b68 <custom3_aes_encoding_choose>
8000121c:	872a                	mv	a4,a0
8000121e:	81418793          	addi	a5,gp,-2028 # 90000074 <cir_rd_2>
80001222:	c398                	sw	a4,0(a5)
80001224:	4589                	li	a1,2
80001226:	fec42503          	lw	a0,-20(s0)
8000122a:	3cf9                	jal	80000d08 <pt_extract>
8000122c:	87aa                	mv	a5,a0
8000122e:	4601                	li	a2,0
80001230:	fe042583          	lw	a1,-32(s0)
80001234:	853e                	mv	a0,a5
80001236:	933ff0ef          	jal	ra,80000b68 <custom3_aes_encoding_choose>
8000123a:	872a                	mv	a4,a0
8000123c:	81818793          	addi	a5,gp,-2024 # 90000078 <cir_rd_3>
80001240:	c398                	sw	a4,0(a5)
80001242:	81818793          	addi	a5,gp,-2024 # 90000078 <cir_rd_3>
80001246:	439c                	lw	a5,0(a5)
80001248:	4605                	li	a2,1
8000124a:	fdc42583          	lw	a1,-36(s0)
8000124e:	853e                	mv	a0,a5
80001250:	919ff0ef          	jal	ra,80000b68 <custom3_aes_encoding_choose>
80001254:	872a                	mv	a4,a0
80001256:	81818793          	addi	a5,gp,-2024 # 90000078 <cir_rd_3>
8000125a:	c398                	sw	a4,0(a5)
8000125c:	81818793          	addi	a5,gp,-2024 # 90000078 <cir_rd_3>
80001260:	439c                	lw	a5,0(a5)
80001262:	4609                	li	a2,2
80001264:	fe842583          	lw	a1,-24(s0)
80001268:	853e                	mv	a0,a5
8000126a:	8ffff0ef          	jal	ra,80000b68 <custom3_aes_encoding_choose>
8000126e:	872a                	mv	a4,a0
80001270:	81818793          	addi	a5,gp,-2024 # 90000078 <cir_rd_3>
80001274:	c398                	sw	a4,0(a5)
80001276:	81818793          	addi	a5,gp,-2024 # 90000078 <cir_rd_3>
8000127a:	439c                	lw	a5,0(a5)
8000127c:	460d                	li	a2,3
8000127e:	fe442583          	lw	a1,-28(s0)
80001282:	853e                	mv	a0,a5
80001284:	8e5ff0ef          	jal	ra,80000b68 <custom3_aes_encoding_choose>
80001288:	872a                	mv	a4,a0
8000128a:	81818793          	addi	a5,gp,-2024 # 90000078 <cir_rd_3>
8000128e:	c398                	sw	a4,0(a5)
80001290:	458d                	li	a1,3
80001292:	fec42503          	lw	a0,-20(s0)
80001296:	3c8d                	jal	80000d08 <pt_extract>
80001298:	87aa                	mv	a5,a0
8000129a:	4601                	li	a2,0
8000129c:	fdc42583          	lw	a1,-36(s0)
800012a0:	853e                	mv	a0,a5
800012a2:	8c7ff0ef          	jal	ra,80000b68 <custom3_aes_encoding_choose>
800012a6:	872a                	mv	a4,a0
800012a8:	81c18793          	addi	a5,gp,-2020 # 9000007c <cir_rd_4>
800012ac:	c398                	sw	a4,0(a5)
800012ae:	81c18793          	addi	a5,gp,-2020 # 9000007c <cir_rd_4>
800012b2:	439c                	lw	a5,0(a5)
800012b4:	4605                	li	a2,1
800012b6:	fe842583          	lw	a1,-24(s0)
800012ba:	853e                	mv	a0,a5
800012bc:	8adff0ef          	jal	ra,80000b68 <custom3_aes_encoding_choose>
800012c0:	872a                	mv	a4,a0
800012c2:	81c18793          	addi	a5,gp,-2020 # 9000007c <cir_rd_4>
800012c6:	c398                	sw	a4,0(a5)
800012c8:	81c18793          	addi	a5,gp,-2020 # 9000007c <cir_rd_4>
800012cc:	439c                	lw	a5,0(a5)
800012ce:	4609                	li	a2,2
800012d0:	fe442583          	lw	a1,-28(s0)
800012d4:	853e                	mv	a0,a5
800012d6:	893ff0ef          	jal	ra,80000b68 <custom3_aes_encoding_choose>
800012da:	872a                	mv	a4,a0
800012dc:	81c18793          	addi	a5,gp,-2020 # 9000007c <cir_rd_4>
800012e0:	c398                	sw	a4,0(a5)
800012e2:	81c18793          	addi	a5,gp,-2020 # 9000007c <cir_rd_4>
800012e6:	439c                	lw	a5,0(a5)
800012e8:	460d                	li	a2,3
800012ea:	fe042583          	lw	a1,-32(s0)
800012ee:	853e                	mv	a0,a5
800012f0:	879ff0ef          	jal	ra,80000b68 <custom3_aes_encoding_choose>
800012f4:	872a                	mv	a4,a0
800012f6:	81c18793          	addi	a5,gp,-2020 # 9000007c <cir_rd_4>
800012fa:	c398                	sw	a4,0(a5)
800012fc:	0001                	nop
800012fe:	50b2                	lw	ra,44(sp)
80001300:	5422                	lw	s0,40(sp)
80001302:	6145                	addi	sp,sp,48
80001304:	8082                	ret

80001306 <aes_cir_even>:
80001306:	7179                	addi	sp,sp,-48
80001308:	d606                	sw	ra,44(sp)
8000130a:	d422                	sw	s0,40(sp)
8000130c:	1800                	addi	s0,sp,48
8000130e:	fea42623          	sw	a0,-20(s0)
80001312:	feb42423          	sw	a1,-24(s0)
80001316:	fec42223          	sw	a2,-28(s0)
8000131a:	fed42023          	sw	a3,-32(s0)
8000131e:	fce42e23          	sw	a4,-36(s0)
80001322:	4581                	li	a1,0
80001324:	fec42503          	lw	a0,-20(s0)
80001328:	9e1ff0ef          	jal	ra,80000d08 <pt_extract>
8000132c:	87aa                	mv	a5,a0
8000132e:	4601                	li	a2,0
80001330:	fe842583          	lw	a1,-24(s0)
80001334:	853e                	mv	a0,a5
80001336:	833ff0ef          	jal	ra,80000b68 <custom3_aes_encoding_choose>
8000133a:	872a                	mv	a4,a0
8000133c:	82018793          	addi	a5,gp,-2016 # 90000080 <cir_rd_5>
80001340:	c398                	sw	a4,0(a5)
80001342:	82018793          	addi	a5,gp,-2016 # 90000080 <cir_rd_5>
80001346:	439c                	lw	a5,0(a5)
80001348:	4605                	li	a2,1
8000134a:	fe442583          	lw	a1,-28(s0)
8000134e:	853e                	mv	a0,a5
80001350:	819ff0ef          	jal	ra,80000b68 <custom3_aes_encoding_choose>
80001354:	872a                	mv	a4,a0
80001356:	82018793          	addi	a5,gp,-2016 # 90000080 <cir_rd_5>
8000135a:	c398                	sw	a4,0(a5)
8000135c:	82018793          	addi	a5,gp,-2016 # 90000080 <cir_rd_5>
80001360:	439c                	lw	a5,0(a5)
80001362:	4609                	li	a2,2
80001364:	fe042583          	lw	a1,-32(s0)
80001368:	853e                	mv	a0,a5
8000136a:	ffeff0ef          	jal	ra,80000b68 <custom3_aes_encoding_choose>
8000136e:	872a                	mv	a4,a0
80001370:	82018793          	addi	a5,gp,-2016 # 90000080 <cir_rd_5>
80001374:	c398                	sw	a4,0(a5)
80001376:	82018793          	addi	a5,gp,-2016 # 90000080 <cir_rd_5>
8000137a:	439c                	lw	a5,0(a5)
8000137c:	460d                	li	a2,3
8000137e:	fdc42583          	lw	a1,-36(s0)
80001382:	853e                	mv	a0,a5
80001384:	fe4ff0ef          	jal	ra,80000b68 <custom3_aes_encoding_choose>
80001388:	872a                	mv	a4,a0
8000138a:	82018793          	addi	a5,gp,-2016 # 90000080 <cir_rd_5>
8000138e:	c398                	sw	a4,0(a5)
80001390:	4585                	li	a1,1
80001392:	fec42503          	lw	a0,-20(s0)
80001396:	973ff0ef          	jal	ra,80000d08 <pt_extract>
8000139a:	87aa                	mv	a5,a0
8000139c:	4601                	li	a2,0
8000139e:	fe442583          	lw	a1,-28(s0)
800013a2:	853e                	mv	a0,a5
800013a4:	fc4ff0ef          	jal	ra,80000b68 <custom3_aes_encoding_choose>
800013a8:	872a                	mv	a4,a0
800013aa:	82418793          	addi	a5,gp,-2012 # 90000084 <cir_rd_6>
800013ae:	c398                	sw	a4,0(a5)
800013b0:	82418793          	addi	a5,gp,-2012 # 90000084 <cir_rd_6>
800013b4:	439c                	lw	a5,0(a5)
800013b6:	4605                	li	a2,1
800013b8:	fe042583          	lw	a1,-32(s0)
800013bc:	853e                	mv	a0,a5
800013be:	faaff0ef          	jal	ra,80000b68 <custom3_aes_encoding_choose>
800013c2:	872a                	mv	a4,a0
800013c4:	82418793          	addi	a5,gp,-2012 # 90000084 <cir_rd_6>
800013c8:	c398                	sw	a4,0(a5)
800013ca:	82418793          	addi	a5,gp,-2012 # 90000084 <cir_rd_6>
800013ce:	439c                	lw	a5,0(a5)
800013d0:	4609                	li	a2,2
800013d2:	fdc42583          	lw	a1,-36(s0)
800013d6:	853e                	mv	a0,a5
800013d8:	f90ff0ef          	jal	ra,80000b68 <custom3_aes_encoding_choose>
800013dc:	872a                	mv	a4,a0
800013de:	82418793          	addi	a5,gp,-2012 # 90000084 <cir_rd_6>
800013e2:	c398                	sw	a4,0(a5)
800013e4:	82418793          	addi	a5,gp,-2012 # 90000084 <cir_rd_6>
800013e8:	439c                	lw	a5,0(a5)
800013ea:	460d                	li	a2,3
800013ec:	fe842583          	lw	a1,-24(s0)
800013f0:	853e                	mv	a0,a5
800013f2:	f76ff0ef          	jal	ra,80000b68 <custom3_aes_encoding_choose>
800013f6:	872a                	mv	a4,a0
800013f8:	82418793          	addi	a5,gp,-2012 # 90000084 <cir_rd_6>
800013fc:	c398                	sw	a4,0(a5)
800013fe:	4589                	li	a1,2
80001400:	fec42503          	lw	a0,-20(s0)
80001404:	905ff0ef          	jal	ra,80000d08 <pt_extract>
80001408:	87aa                	mv	a5,a0
8000140a:	4601                	li	a2,0
8000140c:	fe042583          	lw	a1,-32(s0)
80001410:	853e                	mv	a0,a5
80001412:	f56ff0ef          	jal	ra,80000b68 <custom3_aes_encoding_choose>
80001416:	872a                	mv	a4,a0
80001418:	82818793          	addi	a5,gp,-2008 # 90000088 <cir_rd_7>
8000141c:	c398                	sw	a4,0(a5)
8000141e:	82818793          	addi	a5,gp,-2008 # 90000088 <cir_rd_7>
80001422:	439c                	lw	a5,0(a5)
80001424:	4605                	li	a2,1
80001426:	fdc42583          	lw	a1,-36(s0)
8000142a:	853e                	mv	a0,a5
8000142c:	f3cff0ef          	jal	ra,80000b68 <custom3_aes_encoding_choose>
80001430:	872a                	mv	a4,a0
80001432:	82818793          	addi	a5,gp,-2008 # 90000088 <cir_rd_7>
80001436:	c398                	sw	a4,0(a5)
80001438:	82818793          	addi	a5,gp,-2008 # 90000088 <cir_rd_7>
8000143c:	439c                	lw	a5,0(a5)
8000143e:	4609                	li	a2,2
80001440:	fe842583          	lw	a1,-24(s0)
80001444:	853e                	mv	a0,a5
80001446:	f22ff0ef          	jal	ra,80000b68 <custom3_aes_encoding_choose>
8000144a:	872a                	mv	a4,a0
8000144c:	82818793          	addi	a5,gp,-2008 # 90000088 <cir_rd_7>
80001450:	c398                	sw	a4,0(a5)
80001452:	82818793          	addi	a5,gp,-2008 # 90000088 <cir_rd_7>
80001456:	439c                	lw	a5,0(a5)
80001458:	460d                	li	a2,3
8000145a:	fe442583          	lw	a1,-28(s0)
8000145e:	853e                	mv	a0,a5
80001460:	f08ff0ef          	jal	ra,80000b68 <custom3_aes_encoding_choose>
80001464:	872a                	mv	a4,a0
80001466:	82818793          	addi	a5,gp,-2008 # 90000088 <cir_rd_7>
8000146a:	c398                	sw	a4,0(a5)
8000146c:	458d                	li	a1,3
8000146e:	fec42503          	lw	a0,-20(s0)
80001472:	897ff0ef          	jal	ra,80000d08 <pt_extract>
80001476:	87aa                	mv	a5,a0
80001478:	4601                	li	a2,0
8000147a:	fdc42583          	lw	a1,-36(s0)
8000147e:	853e                	mv	a0,a5
80001480:	ee8ff0ef          	jal	ra,80000b68 <custom3_aes_encoding_choose>
80001484:	872a                	mv	a4,a0
80001486:	82c18793          	addi	a5,gp,-2004 # 9000008c <cir_rd_8>
8000148a:	c398                	sw	a4,0(a5)
8000148c:	82c18793          	addi	a5,gp,-2004 # 9000008c <cir_rd_8>
80001490:	439c                	lw	a5,0(a5)
80001492:	4605                	li	a2,1
80001494:	fe842583          	lw	a1,-24(s0)
80001498:	853e                	mv	a0,a5
8000149a:	eceff0ef          	jal	ra,80000b68 <custom3_aes_encoding_choose>
8000149e:	872a                	mv	a4,a0
800014a0:	82c18793          	addi	a5,gp,-2004 # 9000008c <cir_rd_8>
800014a4:	c398                	sw	a4,0(a5)
800014a6:	82c18793          	addi	a5,gp,-2004 # 9000008c <cir_rd_8>
800014aa:	439c                	lw	a5,0(a5)
800014ac:	4609                	li	a2,2
800014ae:	fe442583          	lw	a1,-28(s0)
800014b2:	853e                	mv	a0,a5
800014b4:	eb4ff0ef          	jal	ra,80000b68 <custom3_aes_encoding_choose>
800014b8:	872a                	mv	a4,a0
800014ba:	82c18793          	addi	a5,gp,-2004 # 9000008c <cir_rd_8>
800014be:	c398                	sw	a4,0(a5)
800014c0:	82c18793          	addi	a5,gp,-2004 # 9000008c <cir_rd_8>
800014c4:	439c                	lw	a5,0(a5)
800014c6:	460d                	li	a2,3
800014c8:	fe042583          	lw	a1,-32(s0)
800014cc:	853e                	mv	a0,a5
800014ce:	e9aff0ef          	jal	ra,80000b68 <custom3_aes_encoding_choose>
800014d2:	872a                	mv	a4,a0
800014d4:	82c18793          	addi	a5,gp,-2004 # 9000008c <cir_rd_8>
800014d8:	c398                	sw	a4,0(a5)
800014da:	0001                	nop
800014dc:	50b2                	lw	ra,44(sp)
800014de:	5422                	lw	s0,40(sp)
800014e0:	6145                	addi	sp,sp,48
800014e2:	8082                	ret

800014e4 <aes_cir_end>:
800014e4:	7179                	addi	sp,sp,-48
800014e6:	d606                	sw	ra,44(sp)
800014e8:	d422                	sw	s0,40(sp)
800014ea:	1800                	addi	s0,sp,48
800014ec:	fea42623          	sw	a0,-20(s0)
800014f0:	feb42423          	sw	a1,-24(s0)
800014f4:	fec42223          	sw	a2,-28(s0)
800014f8:	fed42023          	sw	a3,-32(s0)
800014fc:	fce42e23          	sw	a4,-36(s0)
80001500:	4581                	li	a1,0
80001502:	fec42503          	lw	a0,-20(s0)
80001506:	803ff0ef          	jal	ra,80000d08 <pt_extract>
8000150a:	87aa                	mv	a5,a0
8000150c:	4601                	li	a2,0
8000150e:	fe842583          	lw	a1,-24(s0)
80001512:	853e                	mv	a0,a5
80001514:	f78ff0ef          	jal	ra,80000c8c <custom3_aes_spe_encoding_choose>
80001518:	872a                	mv	a4,a0
8000151a:	82018793          	addi	a5,gp,-2016 # 90000080 <cir_rd_5>
8000151e:	c398                	sw	a4,0(a5)
80001520:	82018793          	addi	a5,gp,-2016 # 90000080 <cir_rd_5>
80001524:	439c                	lw	a5,0(a5)
80001526:	4605                	li	a2,1
80001528:	fe442583          	lw	a1,-28(s0)
8000152c:	853e                	mv	a0,a5
8000152e:	f5eff0ef          	jal	ra,80000c8c <custom3_aes_spe_encoding_choose>
80001532:	872a                	mv	a4,a0
80001534:	82018793          	addi	a5,gp,-2016 # 90000080 <cir_rd_5>
80001538:	c398                	sw	a4,0(a5)
8000153a:	82018793          	addi	a5,gp,-2016 # 90000080 <cir_rd_5>
8000153e:	439c                	lw	a5,0(a5)
80001540:	4609                	li	a2,2
80001542:	fe042583          	lw	a1,-32(s0)
80001546:	853e                	mv	a0,a5
80001548:	f44ff0ef          	jal	ra,80000c8c <custom3_aes_spe_encoding_choose>
8000154c:	872a                	mv	a4,a0
8000154e:	82018793          	addi	a5,gp,-2016 # 90000080 <cir_rd_5>
80001552:	c398                	sw	a4,0(a5)
80001554:	82018793          	addi	a5,gp,-2016 # 90000080 <cir_rd_5>
80001558:	439c                	lw	a5,0(a5)
8000155a:	460d                	li	a2,3
8000155c:	fdc42583          	lw	a1,-36(s0)
80001560:	853e                	mv	a0,a5
80001562:	f2aff0ef          	jal	ra,80000c8c <custom3_aes_spe_encoding_choose>
80001566:	872a                	mv	a4,a0
80001568:	82018793          	addi	a5,gp,-2016 # 90000080 <cir_rd_5>
8000156c:	c398                	sw	a4,0(a5)
8000156e:	4585                	li	a1,1
80001570:	fec42503          	lw	a0,-20(s0)
80001574:	f94ff0ef          	jal	ra,80000d08 <pt_extract>
80001578:	87aa                	mv	a5,a0
8000157a:	4601                	li	a2,0
8000157c:	fe442583          	lw	a1,-28(s0)
80001580:	853e                	mv	a0,a5
80001582:	f0aff0ef          	jal	ra,80000c8c <custom3_aes_spe_encoding_choose>
80001586:	872a                	mv	a4,a0
80001588:	82418793          	addi	a5,gp,-2012 # 90000084 <cir_rd_6>
8000158c:	c398                	sw	a4,0(a5)
8000158e:	82418793          	addi	a5,gp,-2012 # 90000084 <cir_rd_6>
80001592:	439c                	lw	a5,0(a5)
80001594:	4605                	li	a2,1
80001596:	fe042583          	lw	a1,-32(s0)
8000159a:	853e                	mv	a0,a5
8000159c:	ef0ff0ef          	jal	ra,80000c8c <custom3_aes_spe_encoding_choose>
800015a0:	872a                	mv	a4,a0
800015a2:	82418793          	addi	a5,gp,-2012 # 90000084 <cir_rd_6>
800015a6:	c398                	sw	a4,0(a5)
800015a8:	82418793          	addi	a5,gp,-2012 # 90000084 <cir_rd_6>
800015ac:	439c                	lw	a5,0(a5)
800015ae:	4609                	li	a2,2
800015b0:	fdc42583          	lw	a1,-36(s0)
800015b4:	853e                	mv	a0,a5
800015b6:	ed6ff0ef          	jal	ra,80000c8c <custom3_aes_spe_encoding_choose>
800015ba:	872a                	mv	a4,a0
800015bc:	82418793          	addi	a5,gp,-2012 # 90000084 <cir_rd_6>
800015c0:	c398                	sw	a4,0(a5)
800015c2:	82418793          	addi	a5,gp,-2012 # 90000084 <cir_rd_6>
800015c6:	439c                	lw	a5,0(a5)
800015c8:	460d                	li	a2,3
800015ca:	fe842583          	lw	a1,-24(s0)
800015ce:	853e                	mv	a0,a5
800015d0:	ebcff0ef          	jal	ra,80000c8c <custom3_aes_spe_encoding_choose>
800015d4:	872a                	mv	a4,a0
800015d6:	82418793          	addi	a5,gp,-2012 # 90000084 <cir_rd_6>
800015da:	c398                	sw	a4,0(a5)
800015dc:	4589                	li	a1,2
800015de:	fec42503          	lw	a0,-20(s0)
800015e2:	f26ff0ef          	jal	ra,80000d08 <pt_extract>
800015e6:	87aa                	mv	a5,a0
800015e8:	4601                	li	a2,0
800015ea:	fe042583          	lw	a1,-32(s0)
800015ee:	853e                	mv	a0,a5
800015f0:	e9cff0ef          	jal	ra,80000c8c <custom3_aes_spe_encoding_choose>
800015f4:	872a                	mv	a4,a0
800015f6:	82818793          	addi	a5,gp,-2008 # 90000088 <cir_rd_7>
800015fa:	c398                	sw	a4,0(a5)
800015fc:	82818793          	addi	a5,gp,-2008 # 90000088 <cir_rd_7>
80001600:	439c                	lw	a5,0(a5)
80001602:	4605                	li	a2,1
80001604:	fdc42583          	lw	a1,-36(s0)
80001608:	853e                	mv	a0,a5
8000160a:	e82ff0ef          	jal	ra,80000c8c <custom3_aes_spe_encoding_choose>
8000160e:	872a                	mv	a4,a0
80001610:	82818793          	addi	a5,gp,-2008 # 90000088 <cir_rd_7>
80001614:	c398                	sw	a4,0(a5)
80001616:	82818793          	addi	a5,gp,-2008 # 90000088 <cir_rd_7>
8000161a:	439c                	lw	a5,0(a5)
8000161c:	4609                	li	a2,2
8000161e:	fe842583          	lw	a1,-24(s0)
80001622:	853e                	mv	a0,a5
80001624:	e68ff0ef          	jal	ra,80000c8c <custom3_aes_spe_encoding_choose>
80001628:	872a                	mv	a4,a0
8000162a:	82818793          	addi	a5,gp,-2008 # 90000088 <cir_rd_7>
8000162e:	c398                	sw	a4,0(a5)
80001630:	82818793          	addi	a5,gp,-2008 # 90000088 <cir_rd_7>
80001634:	439c                	lw	a5,0(a5)
80001636:	460d                	li	a2,3
80001638:	fe442583          	lw	a1,-28(s0)
8000163c:	853e                	mv	a0,a5
8000163e:	e4eff0ef          	jal	ra,80000c8c <custom3_aes_spe_encoding_choose>
80001642:	872a                	mv	a4,a0
80001644:	82818793          	addi	a5,gp,-2008 # 90000088 <cir_rd_7>
80001648:	c398                	sw	a4,0(a5)
8000164a:	458d                	li	a1,3
8000164c:	fec42503          	lw	a0,-20(s0)
80001650:	eb8ff0ef          	jal	ra,80000d08 <pt_extract>
80001654:	87aa                	mv	a5,a0
80001656:	4601                	li	a2,0
80001658:	fdc42583          	lw	a1,-36(s0)
8000165c:	853e                	mv	a0,a5
8000165e:	e2eff0ef          	jal	ra,80000c8c <custom3_aes_spe_encoding_choose>
80001662:	872a                	mv	a4,a0
80001664:	82c18793          	addi	a5,gp,-2004 # 9000008c <cir_rd_8>
80001668:	c398                	sw	a4,0(a5)
8000166a:	82c18793          	addi	a5,gp,-2004 # 9000008c <cir_rd_8>
8000166e:	439c                	lw	a5,0(a5)
80001670:	4605                	li	a2,1
80001672:	fe842583          	lw	a1,-24(s0)
80001676:	853e                	mv	a0,a5
80001678:	e14ff0ef          	jal	ra,80000c8c <custom3_aes_spe_encoding_choose>
8000167c:	872a                	mv	a4,a0
8000167e:	82c18793          	addi	a5,gp,-2004 # 9000008c <cir_rd_8>
80001682:	c398                	sw	a4,0(a5)
80001684:	82c18793          	addi	a5,gp,-2004 # 9000008c <cir_rd_8>
80001688:	439c                	lw	a5,0(a5)
8000168a:	4609                	li	a2,2
8000168c:	fe442583          	lw	a1,-28(s0)
80001690:	853e                	mv	a0,a5
80001692:	dfaff0ef          	jal	ra,80000c8c <custom3_aes_spe_encoding_choose>
80001696:	872a                	mv	a4,a0
80001698:	82c18793          	addi	a5,gp,-2004 # 9000008c <cir_rd_8>
8000169c:	c398                	sw	a4,0(a5)
8000169e:	82c18793          	addi	a5,gp,-2004 # 9000008c <cir_rd_8>
800016a2:	439c                	lw	a5,0(a5)
800016a4:	460d                	li	a2,3
800016a6:	fe042583          	lw	a1,-32(s0)
800016aa:	853e                	mv	a0,a5
800016ac:	de0ff0ef          	jal	ra,80000c8c <custom3_aes_spe_encoding_choose>
800016b0:	872a                	mv	a4,a0
800016b2:	82c18793          	addi	a5,gp,-2004 # 9000008c <cir_rd_8>
800016b6:	c398                	sw	a4,0(a5)
800016b8:	0001                	nop
800016ba:	50b2                	lw	ra,44(sp)
800016bc:	5422                	lw	s0,40(sp)
800016be:	6145                	addi	sp,sp,48
800016c0:	8082                	ret

800016c2 <nice_case>:
800016c2:	1101                	addi	sp,sp,-32
800016c4:	ce06                	sw	ra,28(sp)
800016c6:	cc22                	sw	s0,24(sp)
800016c8:	1000                	addi	s0,sp,32
800016ca:	fea42623          	sw	a0,-20(s0)
800016ce:	feb42423          	sw	a1,-24(s0)
800016d2:	fec42503          	lw	a0,-20(s0)
800016d6:	f92ff0ef          	jal	ra,80000e68 <aes_key_cir>
800016da:	fec42583          	lw	a1,-20(s0)
800016de:	fe842503          	lw	a0,-24(s0)
800016e2:	9c1ff0ef          	jal	ra,800010a2 <before_cir_xor>
800016e6:	83018793          	addi	a5,gp,-2000 # 90000090 <cir1_rs2_1>
800016ea:	438c                	lw	a1,0(a5)
800016ec:	83418793          	addi	a5,gp,-1996 # 90000094 <cir1_rs2_2>
800016f0:	4390                	lw	a2,0(a5)
800016f2:	83818793          	addi	a5,gp,-1992 # 90000098 <cir1_rs2_3>
800016f6:	4394                	lw	a3,0(a5)
800016f8:	83c18793          	addi	a5,gp,-1988 # 9000009c <cir1_rs2_4>
800016fc:	439c                	lw	a5,0(a5)
800016fe:	873e                	mv	a4,a5
80001700:	8e418513          	addi	a0,gp,-1820 # 90000144 <key2>
80001704:	a35ff0ef          	jal	ra,80001138 <aes_cir_odd>
80001708:	81018793          	addi	a5,gp,-2032 # 90000070 <cir_rd_1>
8000170c:	438c                	lw	a1,0(a5)
8000170e:	81418793          	addi	a5,gp,-2028 # 90000074 <cir_rd_2>
80001712:	4390                	lw	a2,0(a5)
80001714:	81818793          	addi	a5,gp,-2024 # 90000078 <cir_rd_3>
80001718:	4394                	lw	a3,0(a5)
8000171a:	81c18793          	addi	a5,gp,-2020 # 9000007c <cir_rd_4>
8000171e:	439c                	lw	a5,0(a5)
80001720:	873e                	mv	a4,a5
80001722:	8f418513          	addi	a0,gp,-1804 # 90000154 <key3>
80001726:	36c5                	jal	80001306 <aes_cir_even>
80001728:	82018793          	addi	a5,gp,-2016 # 90000080 <cir_rd_5>
8000172c:	438c                	lw	a1,0(a5)
8000172e:	82418793          	addi	a5,gp,-2012 # 90000084 <cir_rd_6>
80001732:	4390                	lw	a2,0(a5)
80001734:	82818793          	addi	a5,gp,-2008 # 90000088 <cir_rd_7>
80001738:	4394                	lw	a3,0(a5)
8000173a:	82c18793          	addi	a5,gp,-2004 # 9000008c <cir_rd_8>
8000173e:	439c                	lw	a5,0(a5)
80001740:	873e                	mv	a4,a5
80001742:	90418513          	addi	a0,gp,-1788 # 90000164 <key4>
80001746:	9f3ff0ef          	jal	ra,80001138 <aes_cir_odd>
8000174a:	81018793          	addi	a5,gp,-2032 # 90000070 <cir_rd_1>
8000174e:	438c                	lw	a1,0(a5)
80001750:	81418793          	addi	a5,gp,-2028 # 90000074 <cir_rd_2>
80001754:	4390                	lw	a2,0(a5)
80001756:	81818793          	addi	a5,gp,-2024 # 90000078 <cir_rd_3>
8000175a:	4394                	lw	a3,0(a5)
8000175c:	81c18793          	addi	a5,gp,-2020 # 9000007c <cir_rd_4>
80001760:	439c                	lw	a5,0(a5)
80001762:	873e                	mv	a4,a5
80001764:	91418513          	addi	a0,gp,-1772 # 90000174 <key5>
80001768:	3e79                	jal	80001306 <aes_cir_even>
8000176a:	82018793          	addi	a5,gp,-2016 # 90000080 <cir_rd_5>
8000176e:	438c                	lw	a1,0(a5)
80001770:	82418793          	addi	a5,gp,-2012 # 90000084 <cir_rd_6>
80001774:	4390                	lw	a2,0(a5)
80001776:	82818793          	addi	a5,gp,-2008 # 90000088 <cir_rd_7>
8000177a:	4394                	lw	a3,0(a5)
8000177c:	82c18793          	addi	a5,gp,-2004 # 9000008c <cir_rd_8>
80001780:	439c                	lw	a5,0(a5)
80001782:	873e                	mv	a4,a5
80001784:	92418513          	addi	a0,gp,-1756 # 90000184 <key6>
80001788:	9b1ff0ef          	jal	ra,80001138 <aes_cir_odd>
8000178c:	81018793          	addi	a5,gp,-2032 # 90000070 <cir_rd_1>
80001790:	438c                	lw	a1,0(a5)
80001792:	81418793          	addi	a5,gp,-2028 # 90000074 <cir_rd_2>
80001796:	4390                	lw	a2,0(a5)
80001798:	81818793          	addi	a5,gp,-2024 # 90000078 <cir_rd_3>
8000179c:	4394                	lw	a3,0(a5)
8000179e:	81c18793          	addi	a5,gp,-2020 # 9000007c <cir_rd_4>
800017a2:	439c                	lw	a5,0(a5)
800017a4:	873e                	mv	a4,a5
800017a6:	93418513          	addi	a0,gp,-1740 # 90000194 <key7>
800017aa:	b5dff0ef          	jal	ra,80001306 <aes_cir_even>
800017ae:	82018793          	addi	a5,gp,-2016 # 90000080 <cir_rd_5>
800017b2:	438c                	lw	a1,0(a5)
800017b4:	82418793          	addi	a5,gp,-2012 # 90000084 <cir_rd_6>
800017b8:	4390                	lw	a2,0(a5)
800017ba:	82818793          	addi	a5,gp,-2008 # 90000088 <cir_rd_7>
800017be:	4394                	lw	a3,0(a5)
800017c0:	82c18793          	addi	a5,gp,-2004 # 9000008c <cir_rd_8>
800017c4:	439c                	lw	a5,0(a5)
800017c6:	873e                	mv	a4,a5
800017c8:	94418513          	addi	a0,gp,-1724 # 900001a4 <key8>
800017cc:	96dff0ef          	jal	ra,80001138 <aes_cir_odd>
800017d0:	81018793          	addi	a5,gp,-2032 # 90000070 <cir_rd_1>
800017d4:	438c                	lw	a1,0(a5)
800017d6:	81418793          	addi	a5,gp,-2028 # 90000074 <cir_rd_2>
800017da:	4390                	lw	a2,0(a5)
800017dc:	81818793          	addi	a5,gp,-2024 # 90000078 <cir_rd_3>
800017e0:	4394                	lw	a3,0(a5)
800017e2:	81c18793          	addi	a5,gp,-2020 # 9000007c <cir_rd_4>
800017e6:	439c                	lw	a5,0(a5)
800017e8:	873e                	mv	a4,a5
800017ea:	95418513          	addi	a0,gp,-1708 # 900001b4 <key9>
800017ee:	b19ff0ef          	jal	ra,80001306 <aes_cir_even>
800017f2:	82018793          	addi	a5,gp,-2016 # 90000080 <cir_rd_5>
800017f6:	438c                	lw	a1,0(a5)
800017f8:	82418793          	addi	a5,gp,-2012 # 90000084 <cir_rd_6>
800017fc:	4390                	lw	a2,0(a5)
800017fe:	82818793          	addi	a5,gp,-2008 # 90000088 <cir_rd_7>
80001802:	4394                	lw	a3,0(a5)
80001804:	82c18793          	addi	a5,gp,-2004 # 9000008c <cir_rd_8>
80001808:	439c                	lw	a5,0(a5)
8000180a:	873e                	mv	a4,a5
8000180c:	96418513          	addi	a0,gp,-1692 # 900001c4 <key10>
80001810:	929ff0ef          	jal	ra,80001138 <aes_cir_odd>
80001814:	81018793          	addi	a5,gp,-2032 # 90000070 <cir_rd_1>
80001818:	438c                	lw	a1,0(a5)
8000181a:	81418793          	addi	a5,gp,-2028 # 90000074 <cir_rd_2>
8000181e:	4390                	lw	a2,0(a5)
80001820:	81818793          	addi	a5,gp,-2024 # 90000078 <cir_rd_3>
80001824:	4394                	lw	a3,0(a5)
80001826:	81c18793          	addi	a5,gp,-2020 # 9000007c <cir_rd_4>
8000182a:	439c                	lw	a5,0(a5)
8000182c:	873e                	mv	a4,a5
8000182e:	97418513          	addi	a0,gp,-1676 # 900001d4 <key11>
80001832:	394d                	jal	800014e4 <aes_cir_end>
80001834:	82018793          	addi	a5,gp,-2016 # 90000080 <cir_rd_5>
80001838:	439c                	lw	a5,0(a5)
8000183a:	85be                	mv	a1,a5
8000183c:	00002517          	auipc	a0,0x2
80001840:	66450513          	addi	a0,a0,1636 # 80003ea0 <_read_r+0x132>
80001844:	1ee010ef          	jal	ra,80002a32 <iprintf>
80001848:	82418793          	addi	a5,gp,-2012 # 90000084 <cir_rd_6>
8000184c:	439c                	lw	a5,0(a5)
8000184e:	85be                	mv	a1,a5
80001850:	00002517          	auipc	a0,0x2
80001854:	65c50513          	addi	a0,a0,1628 # 80003eac <_read_r+0x13e>
80001858:	1da010ef          	jal	ra,80002a32 <iprintf>
8000185c:	82818793          	addi	a5,gp,-2008 # 90000088 <cir_rd_7>
80001860:	439c                	lw	a5,0(a5)
80001862:	85be                	mv	a1,a5
80001864:	00002517          	auipc	a0,0x2
80001868:	65450513          	addi	a0,a0,1620 # 80003eb8 <_read_r+0x14a>
8000186c:	1c6010ef          	jal	ra,80002a32 <iprintf>
80001870:	82c18793          	addi	a5,gp,-2004 # 9000008c <cir_rd_8>
80001874:	439c                	lw	a5,0(a5)
80001876:	85be                	mv	a1,a5
80001878:	00002517          	auipc	a0,0x2
8000187c:	64c50513          	addi	a0,a0,1612 # 80003ec4 <_read_r+0x156>
80001880:	1b2010ef          	jal	ra,80002a32 <iprintf>
80001884:	0001                	nop
80001886:	40f2                	lw	ra,28(sp)
80001888:	4462                	lw	s0,24(sp)
8000188a:	6105                	addi	sp,sp,32
8000188c:	8082                	ret

8000188e <phex>:
8000188e:	7179                	addi	sp,sp,-48
80001890:	d606                	sw	ra,44(sp)
80001892:	d422                	sw	s0,40(sp)
80001894:	1800                	addi	s0,sp,48
80001896:	fca42e23          	sw	a0,-36(s0)
8000189a:	47c1                	li	a5,16
8000189c:	fef40723          	sb	a5,-18(s0)
800018a0:	fe0407a3          	sb	zero,-17(s0)
800018a4:	a025                	j	800018cc <phex+0x3e>
800018a6:	fef44783          	lbu	a5,-17(s0)
800018aa:	fdc42703          	lw	a4,-36(s0)
800018ae:	97ba                	add	a5,a5,a4
800018b0:	0007c783          	lbu	a5,0(a5)
800018b4:	85be                	mv	a1,a5
800018b6:	00002517          	auipc	a0,0x2
800018ba:	61a50513          	addi	a0,a0,1562 # 80003ed0 <_read_r+0x162>
800018be:	174010ef          	jal	ra,80002a32 <iprintf>
800018c2:	fef44783          	lbu	a5,-17(s0)
800018c6:	0785                	addi	a5,a5,1
800018c8:	fef407a3          	sb	a5,-17(s0)
800018cc:	fef44703          	lbu	a4,-17(s0)
800018d0:	fee44783          	lbu	a5,-18(s0)
800018d4:	fcf769e3          	bltu	a4,a5,800018a6 <phex+0x18>
800018d8:	4529                	li	a0,10
800018da:	192010ef          	jal	ra,80002a6c <putchar>
800018de:	0001                	nop
800018e0:	50b2                	lw	ra,44(sp)
800018e2:	5422                	lw	s0,40(sp)
800018e4:	6145                	addi	sp,sp,48
800018e6:	8082                	ret

800018e8 <normal_case>:
800018e8:	7151                	addi	sp,sp,-240
800018ea:	d786                	sw	ra,236(sp)
800018ec:	d5a2                	sw	s0,232(sp)
800018ee:	1980                	addi	s0,sp,240
800018f0:	00002797          	auipc	a5,0x2
800018f4:	5f478793          	addi	a5,a5,1524 # 80003ee4 <_read_r+0x176>
800018f8:	4390                	lw	a2,0(a5)
800018fa:	43d4                	lw	a3,4(a5)
800018fc:	4798                	lw	a4,8(a5)
800018fe:	47dc                	lw	a5,12(a5)
80001900:	fec42023          	sw	a2,-32(s0)
80001904:	fed42223          	sw	a3,-28(s0)
80001908:	fee42423          	sw	a4,-24(s0)
8000190c:	fef42623          	sw	a5,-20(s0)
80001910:	00002797          	auipc	a5,0x2
80001914:	5e478793          	addi	a5,a5,1508 # 80003ef4 <_read_r+0x186>
80001918:	4390                	lw	a2,0(a5)
8000191a:	43d4                	lw	a3,4(a5)
8000191c:	4798                	lw	a4,8(a5)
8000191e:	47dc                	lw	a5,12(a5)
80001920:	fcc42823          	sw	a2,-48(s0)
80001924:	fcd42a23          	sw	a3,-44(s0)
80001928:	fce42c23          	sw	a4,-40(s0)
8000192c:	fcf42e23          	sw	a5,-36(s0)
80001930:	00002517          	auipc	a0,0x2
80001934:	5a850513          	addi	a0,a0,1448 # 80003ed8 <_read_r+0x16a>
80001938:	2b6010ef          	jal	ra,80002bee <puts>
8000193c:	fe040713          	addi	a4,s0,-32
80001940:	f1040793          	addi	a5,s0,-240
80001944:	85ba                	mv	a1,a4
80001946:	853e                	mv	a0,a5
80001948:	2fbd                	jal	800020c6 <AES_init_ctx>
8000194a:	fd040713          	addi	a4,s0,-48
8000194e:	f1040793          	addi	a5,s0,-240
80001952:	85ba                	mv	a1,a4
80001954:	853e                	mv	a0,a5
80001956:	4a1000ef          	jal	ra,800025f6 <AES_ECB_encrypt>
8000195a:	fd040793          	addi	a5,s0,-48
8000195e:	853e                	mv	a0,a5
80001960:	373d                	jal	8000188e <phex>
80001962:	0001                	nop
80001964:	50be                	lw	ra,236(sp)
80001966:	542e                	lw	s0,232(sp)
80001968:	616d                	addi	sp,sp,240
8000196a:	8082                	ret

8000196c <main>:
8000196c:	710d                	addi	sp,sp,-352
8000196e:	14112e23          	sw	ra,348(sp)
80001972:	14812c23          	sw	s0,344(sp)
80001976:	15212a23          	sw	s2,340(sp)
8000197a:	15312823          	sw	s3,336(sp)
8000197e:	15412623          	sw	s4,332(sp)
80001982:	15512423          	sw	s5,328(sp)
80001986:	15612223          	sw	s6,324(sp)
8000198a:	15712023          	sw	s7,320(sp)
8000198e:	13812e23          	sw	s8,316(sp)
80001992:	13912c23          	sw	s9,312(sp)
80001996:	13a12a23          	sw	s10,308(sp)
8000199a:	13b12823          	sw	s11,304(sp)
8000199e:	1280                	addi	s0,sp,352
800019a0:	00002797          	auipc	a5,0x2
800019a4:	55478793          	addi	a5,a5,1364 # 80003ef4 <_read_r+0x186>
800019a8:	4390                	lw	a2,0(a5)
800019aa:	43d4                	lw	a3,4(a5)
800019ac:	4798                	lw	a4,8(a5)
800019ae:	47dc                	lw	a5,12(a5)
800019b0:	f6c42823          	sw	a2,-144(s0)
800019b4:	f6d42a23          	sw	a3,-140(s0)
800019b8:	f6e42c23          	sw	a4,-136(s0)
800019bc:	f6f42e23          	sw	a5,-132(s0)
800019c0:	00002797          	auipc	a5,0x2
800019c4:	52478793          	addi	a5,a5,1316 # 80003ee4 <_read_r+0x176>
800019c8:	4390                	lw	a2,0(a5)
800019ca:	43d4                	lw	a3,4(a5)
800019cc:	4798                	lw	a4,8(a5)
800019ce:	47dc                	lw	a5,12(a5)
800019d0:	f6c42023          	sw	a2,-160(s0)
800019d4:	f6d42223          	sw	a3,-156(s0)
800019d8:	f6e42423          	sw	a4,-152(s0)
800019dc:	f6f42623          	sw	a5,-148(s0)
800019e0:	00002517          	auipc	a0,0x2
800019e4:	52450513          	addi	a0,a0,1316 # 80003f04 <_read_r+0x196>
800019e8:	206010ef          	jal	ra,80002bee <puts>
800019ec:	00002517          	auipc	a0,0x2
800019f0:	54050513          	addi	a0,a0,1344 # 80003f2c <_read_r+0x1be>
800019f4:	1fa010ef          	jal	ra,80002bee <puts>
800019f8:	00002517          	auipc	a0,0x2
800019fc:	54450513          	addi	a0,a0,1348 # 80003f3c <_read_r+0x1ce>
80001a00:	1ee010ef          	jal	ra,80002bee <puts>
80001a04:	00002517          	auipc	a0,0x2
80001a08:	56850513          	addi	a0,a0,1384 # 80003f6c <_read_r+0x1fe>
80001a0c:	1e2010ef          	jal	ra,80002bee <puts>
80001a10:	b82027f3          	csrr	a5,minstreth
80001a14:	80be                	mv	ra,a5
80001a16:	8786                	mv	a5,ra
80001a18:	f4f42e23          	sw	a5,-164(s0)
80001a1c:	b02027f3          	csrr	a5,minstret
80001a20:	80be                	mv	ra,a5
80001a22:	8786                	mv	a5,ra
80001a24:	f4f42c23          	sw	a5,-168(s0)
80001a28:	b82027f3          	csrr	a5,minstreth
80001a2c:	80be                	mv	ra,a5
80001a2e:	8786                	mv	a5,ra
80001a30:	f4f42a23          	sw	a5,-172(s0)
80001a34:	f5c42703          	lw	a4,-164(s0)
80001a38:	f5442783          	lw	a5,-172(s0)
80001a3c:	00f70863          	beq	a4,a5,80001a4c <main+0xe0>
80001a40:	b02027f3          	csrr	a5,minstret
80001a44:	80be                	mv	ra,a5
80001a46:	8786                	mv	a5,ra
80001a48:	f4f42c23          	sw	a5,-168(s0)
80001a4c:	f5442783          	lw	a5,-172(s0)
80001a50:	eaf42c23          	sw	a5,-328(s0)
80001a54:	ea042e23          	sw	zero,-324(s0)
80001a58:	eb842783          	lw	a5,-328(s0)
80001a5c:	00079793          	slli	a5,a5,0x0
80001a60:	eaf42a23          	sw	a5,-332(s0)
80001a64:	ea042823          	sw	zero,-336(s0)
80001a68:	f5842783          	lw	a5,-168(s0)
80001a6c:	eaf42423          	sw	a5,-344(s0)
80001a70:	ea042623          	sw	zero,-340(s0)
80001a74:	eb042503          	lw	a0,-336(s0)
80001a78:	eb442583          	lw	a1,-332(s0)
80001a7c:	87aa                	mv	a5,a0
80001a7e:	ea842603          	lw	a2,-344(s0)
80001a82:	eac42683          	lw	a3,-340(s0)
80001a86:	8732                	mv	a4,a2
80001a88:	8fd9                	or	a5,a5,a4
80001a8a:	f8f42023          	sw	a5,-128(s0)
80001a8e:	87ae                	mv	a5,a1
80001a90:	8736                	mv	a4,a3
80001a92:	8fd9                	or	a5,a5,a4
80001a94:	f8f42223          	sw	a5,-124(s0)
80001a98:	f8042703          	lw	a4,-128(s0)
80001a9c:	f8442783          	lw	a5,-124(s0)
80001aa0:	fce42223          	sw	a4,-60(s0)
80001aa4:	b80027f3          	csrr	a5,mcycleh
80001aa8:	80be                	mv	ra,a5
80001aaa:	8786                	mv	a5,ra
80001aac:	f4f42823          	sw	a5,-176(s0)
80001ab0:	b00027f3          	csrr	a5,mcycle
80001ab4:	80be                	mv	ra,a5
80001ab6:	8786                	mv	a5,ra
80001ab8:	f4f42623          	sw	a5,-180(s0)
80001abc:	b80027f3          	csrr	a5,mcycleh
80001ac0:	80be                	mv	ra,a5
80001ac2:	8786                	mv	a5,ra
80001ac4:	f4f42423          	sw	a5,-184(s0)
80001ac8:	f5042703          	lw	a4,-176(s0)
80001acc:	f4842783          	lw	a5,-184(s0)
80001ad0:	00f70863          	beq	a4,a5,80001ae0 <main+0x174>
80001ad4:	b00027f3          	csrr	a5,mcycle
80001ad8:	80be                	mv	ra,a5
80001ada:	8786                	mv	a5,ra
80001adc:	f4f42623          	sw	a5,-180(s0)
80001ae0:	f4842783          	lw	a5,-184(s0)
80001ae4:	ecf42823          	sw	a5,-304(s0)
80001ae8:	ec042a23          	sw	zero,-300(s0)
80001aec:	ed042783          	lw	a5,-304(s0)
80001af0:	00079793          	slli	a5,a5,0x0
80001af4:	ecf42623          	sw	a5,-308(s0)
80001af8:	ec042423          	sw	zero,-312(s0)
80001afc:	f4c42783          	lw	a5,-180(s0)
80001b00:	ecf42023          	sw	a5,-320(s0)
80001b04:	ec042223          	sw	zero,-316(s0)
80001b08:	ec842503          	lw	a0,-312(s0)
80001b0c:	ecc42583          	lw	a1,-308(s0)
80001b10:	87aa                	mv	a5,a0
80001b12:	ec042603          	lw	a2,-320(s0)
80001b16:	ec442683          	lw	a3,-316(s0)
80001b1a:	8732                	mv	a4,a2
80001b1c:	8fd9                	or	a5,a5,a4
80001b1e:	f8f42423          	sw	a5,-120(s0)
80001b22:	87ae                	mv	a5,a1
80001b24:	8736                	mv	a4,a3
80001b26:	8fd9                	or	a5,a5,a4
80001b28:	f8f42623          	sw	a5,-116(s0)
80001b2c:	f8842703          	lw	a4,-120(s0)
80001b30:	f8c42783          	lw	a5,-116(s0)
80001b34:	fce42023          	sw	a4,-64(s0)
80001b38:	3b45                	jal	800018e8 <normal_case>
80001b3a:	fcc42703          	lw	a4,-52(s0)
80001b3e:	fc442783          	lw	a5,-60(s0)
80001b42:	40f707b3          	sub	a5,a4,a5
80001b46:	faf42e23          	sw	a5,-68(s0)
80001b4a:	fc842703          	lw	a4,-56(s0)
80001b4e:	fc042783          	lw	a5,-64(s0)
80001b52:	40f707b3          	sub	a5,a4,a5
80001b56:	faf42c23          	sw	a5,-72(s0)
80001b5a:	00002517          	auipc	a0,0x2
80001b5e:	3e250513          	addi	a0,a0,994 # 80003f3c <_read_r+0x1ce>
80001b62:	08c010ef          	jal	ra,80002bee <puts>
80001b66:	00002517          	auipc	a0,0x2
80001b6a:	42250513          	addi	a0,a0,1058 # 80003f88 <_read_r+0x21a>
80001b6e:	080010ef          	jal	ra,80002bee <puts>
80001b72:	b82027f3          	csrr	a5,minstreth
80001b76:	80be                	mv	ra,a5
80001b78:	8786                	mv	a5,ra
80001b7a:	f4f42223          	sw	a5,-188(s0)
80001b7e:	b02027f3          	csrr	a5,minstret
80001b82:	80be                	mv	ra,a5
80001b84:	8786                	mv	a5,ra
80001b86:	f4f42023          	sw	a5,-192(s0)
80001b8a:	b82027f3          	csrr	a5,minstreth
80001b8e:	80be                	mv	ra,a5
80001b90:	8786                	mv	a5,ra
80001b92:	f2f42e23          	sw	a5,-196(s0)
80001b96:	f4442703          	lw	a4,-188(s0)
80001b9a:	f3c42783          	lw	a5,-196(s0)
80001b9e:	00f70863          	beq	a4,a5,80001bae <main+0x242>
80001ba2:	b02027f3          	csrr	a5,minstret
80001ba6:	80be                	mv	ra,a5
80001ba8:	8786                	mv	a5,ra
80001baa:	f4f42023          	sw	a5,-192(s0)
80001bae:	f3c42783          	lw	a5,-196(s0)
80001bb2:	eef42423          	sw	a5,-280(s0)
80001bb6:	ee042623          	sw	zero,-276(s0)
80001bba:	ee842783          	lw	a5,-280(s0)
80001bbe:	00079793          	slli	a5,a5,0x0
80001bc2:	eef42223          	sw	a5,-284(s0)
80001bc6:	ee042023          	sw	zero,-288(s0)
80001bca:	f4042783          	lw	a5,-192(s0)
80001bce:	ecf42c23          	sw	a5,-296(s0)
80001bd2:	ec042e23          	sw	zero,-292(s0)
80001bd6:	ee042503          	lw	a0,-288(s0)
80001bda:	ee442583          	lw	a1,-284(s0)
80001bde:	87aa                	mv	a5,a0
80001be0:	ed842603          	lw	a2,-296(s0)
80001be4:	edc42683          	lw	a3,-292(s0)
80001be8:	8732                	mv	a4,a2
80001bea:	8fd9                	or	a5,a5,a4
80001bec:	f8f42823          	sw	a5,-112(s0)
80001bf0:	87ae                	mv	a5,a1
80001bf2:	8736                	mv	a4,a3
80001bf4:	8fd9                	or	a5,a5,a4
80001bf6:	f8f42a23          	sw	a5,-108(s0)
80001bfa:	f9042703          	lw	a4,-112(s0)
80001bfe:	f9442783          	lw	a5,-108(s0)
80001c02:	fce42223          	sw	a4,-60(s0)
80001c06:	b80027f3          	csrr	a5,mcycleh
80001c0a:	80be                	mv	ra,a5
80001c0c:	8786                	mv	a5,ra
80001c0e:	f2f42c23          	sw	a5,-200(s0)
80001c12:	b00027f3          	csrr	a5,mcycle
80001c16:	80be                	mv	ra,a5
80001c18:	8786                	mv	a5,ra
80001c1a:	f2f42a23          	sw	a5,-204(s0)
80001c1e:	b80027f3          	csrr	a5,mcycleh
80001c22:	80be                	mv	ra,a5
80001c24:	8786                	mv	a5,ra
80001c26:	f2f42823          	sw	a5,-208(s0)
80001c2a:	f3842703          	lw	a4,-200(s0)
80001c2e:	f3042783          	lw	a5,-208(s0)
80001c32:	00f70863          	beq	a4,a5,80001c42 <main+0x2d6>
80001c36:	b00027f3          	csrr	a5,mcycle
80001c3a:	80be                	mv	ra,a5
80001c3c:	8786                	mv	a5,ra
80001c3e:	f2f42a23          	sw	a5,-204(s0)
80001c42:	f3042783          	lw	a5,-208(s0)
80001c46:	f0f42023          	sw	a5,-256(s0)
80001c4a:	f0042223          	sw	zero,-252(s0)
80001c4e:	f0042783          	lw	a5,-256(s0)
80001c52:	00079793          	slli	a5,a5,0x0
80001c56:	eef42e23          	sw	a5,-260(s0)
80001c5a:	ee042c23          	sw	zero,-264(s0)
80001c5e:	f3442783          	lw	a5,-204(s0)
80001c62:	eef42823          	sw	a5,-272(s0)
80001c66:	ee042a23          	sw	zero,-268(s0)
80001c6a:	ef842503          	lw	a0,-264(s0)
80001c6e:	efc42583          	lw	a1,-260(s0)
80001c72:	87aa                	mv	a5,a0
80001c74:	ef042603          	lw	a2,-272(s0)
80001c78:	ef442683          	lw	a3,-268(s0)
80001c7c:	8732                	mv	a4,a2
80001c7e:	8fd9                	or	a5,a5,a4
80001c80:	f8f42c23          	sw	a5,-104(s0)
80001c84:	87ae                	mv	a5,a1
80001c86:	8736                	mv	a4,a3
80001c88:	8fd9                	or	a5,a5,a4
80001c8a:	f8f42e23          	sw	a5,-100(s0)
80001c8e:	f9842703          	lw	a4,-104(s0)
80001c92:	f9c42783          	lw	a5,-100(s0)
80001c96:	fce42023          	sw	a4,-64(s0)
80001c9a:	f7040713          	addi	a4,s0,-144
80001c9e:	f6040793          	addi	a5,s0,-160
80001ca2:	85ba                	mv	a1,a4
80001ca4:	853e                	mv	a0,a5
80001ca6:	a1dff0ef          	jal	ra,800016c2 <nice_case>
80001caa:	b82027f3          	csrr	a5,minstreth
80001cae:	80be                	mv	ra,a5
80001cb0:	8786                	mv	a5,ra
80001cb2:	f2f42623          	sw	a5,-212(s0)
80001cb6:	b02027f3          	csrr	a5,minstret
80001cba:	80be                	mv	ra,a5
80001cbc:	8786                	mv	a5,ra
80001cbe:	f2f42423          	sw	a5,-216(s0)
80001cc2:	b82027f3          	csrr	a5,minstreth
80001cc6:	80be                	mv	ra,a5
80001cc8:	8786                	mv	a5,ra
80001cca:	f2f42223          	sw	a5,-220(s0)
80001cce:	f2c42703          	lw	a4,-212(s0)
80001cd2:	f2442783          	lw	a5,-220(s0)
80001cd6:	00f70863          	beq	a4,a5,80001ce6 <main+0x37a>
80001cda:	b02027f3          	csrr	a5,minstret
80001cde:	80be                	mv	ra,a5
80001ce0:	8786                	mv	a5,ra
80001ce2:	f2f42423          	sw	a5,-216(s0)
80001ce6:	f2442783          	lw	a5,-220(s0)
80001cea:	8c3e                	mv	s8,a5
80001cec:	4c81                	li	s9,0
80001cee:	000c1d93          	slli	s11,s8,0x0
80001cf2:	4d01                	li	s10,0
80001cf4:	f2842783          	lw	a5,-216(s0)
80001cf8:	f0f42423          	sw	a5,-248(s0)
80001cfc:	f0042623          	sw	zero,-244(s0)
80001d00:	f0842603          	lw	a2,-248(s0)
80001d04:	f0c42683          	lw	a3,-244(s0)
80001d08:	87b2                	mv	a5,a2
80001d0a:	00fd67b3          	or	a5,s10,a5
80001d0e:	faf42023          	sw	a5,-96(s0)
80001d12:	87b6                	mv	a5,a3
80001d14:	00fde7b3          	or	a5,s11,a5
80001d18:	faf42223          	sw	a5,-92(s0)
80001d1c:	fa042703          	lw	a4,-96(s0)
80001d20:	fa442783          	lw	a5,-92(s0)
80001d24:	fce42623          	sw	a4,-52(s0)
80001d28:	b80027f3          	csrr	a5,mcycleh
80001d2c:	80be                	mv	ra,a5
80001d2e:	8786                	mv	a5,ra
80001d30:	f2f42023          	sw	a5,-224(s0)
80001d34:	b00027f3          	csrr	a5,mcycle
80001d38:	80be                	mv	ra,a5
80001d3a:	8786                	mv	a5,ra
80001d3c:	f0f42e23          	sw	a5,-228(s0)
80001d40:	b80027f3          	csrr	a5,mcycleh
80001d44:	80be                	mv	ra,a5
80001d46:	8786                	mv	a5,ra
80001d48:	f0f42c23          	sw	a5,-232(s0)
80001d4c:	f2042703          	lw	a4,-224(s0)
80001d50:	f1842783          	lw	a5,-232(s0)
80001d54:	00f70863          	beq	a4,a5,80001d64 <main+0x3f8>
80001d58:	b00027f3          	csrr	a5,mcycle
80001d5c:	80be                	mv	ra,a5
80001d5e:	8786                	mv	a5,ra
80001d60:	f0f42e23          	sw	a5,-228(s0)
80001d64:	f1842783          	lw	a5,-232(s0)
80001d68:	893e                	mv	s2,a5
80001d6a:	4981                	li	s3,0
80001d6c:	00091a93          	slli	s5,s2,0x0
80001d70:	4a01                	li	s4,0
80001d72:	f1c42783          	lw	a5,-228(s0)
80001d76:	8b3e                	mv	s6,a5
80001d78:	4b81                	li	s7,0
80001d7a:	016a67b3          	or	a5,s4,s6
80001d7e:	faf42423          	sw	a5,-88(s0)
80001d82:	017ae7b3          	or	a5,s5,s7
80001d86:	faf42623          	sw	a5,-84(s0)
80001d8a:	fa842703          	lw	a4,-88(s0)
80001d8e:	fac42783          	lw	a5,-84(s0)
80001d92:	fce42423          	sw	a4,-56(s0)
80001d96:	fcc42703          	lw	a4,-52(s0)
80001d9a:	fc442783          	lw	a5,-60(s0)
80001d9e:	40f707b3          	sub	a5,a4,a5
80001da2:	faf42a23          	sw	a5,-76(s0)
80001da6:	fc842703          	lw	a4,-56(s0)
80001daa:	fc042783          	lw	a5,-64(s0)
80001dae:	40f707b3          	sub	a5,a4,a5
80001db2:	faf42823          	sw	a5,-80(s0)
80001db6:	00002517          	auipc	a0,0x2
80001dba:	18650513          	addi	a0,a0,390 # 80003f3c <_read_r+0x1ce>
80001dbe:	631000ef          	jal	ra,80002bee <puts>
80001dc2:	00002517          	auipc	a0,0x2
80001dc6:	1e250513          	addi	a0,a0,482 # 80003fa4 <_read_r+0x236>
80001dca:	625000ef          	jal	ra,80002bee <puts>
80001dce:	00002517          	auipc	a0,0x2
80001dd2:	1ee50513          	addi	a0,a0,494 # 80003fbc <_read_r+0x24e>
80001dd6:	619000ef          	jal	ra,80002bee <puts>
80001dda:	fb842603          	lw	a2,-72(s0)
80001dde:	fbc42583          	lw	a1,-68(s0)
80001de2:	00002517          	auipc	a0,0x2
80001de6:	1e650513          	addi	a0,a0,486 # 80003fc8 <_read_r+0x25a>
80001dea:	449000ef          	jal	ra,80002a32 <iprintf>
80001dee:	00002517          	auipc	a0,0x2
80001df2:	1fa50513          	addi	a0,a0,506 # 80003fe8 <_read_r+0x27a>
80001df6:	5f9000ef          	jal	ra,80002bee <puts>
80001dfa:	fb042603          	lw	a2,-80(s0)
80001dfe:	fb442583          	lw	a1,-76(s0)
80001e02:	00002517          	auipc	a0,0x2
80001e06:	1c650513          	addi	a0,a0,454 # 80003fc8 <_read_r+0x25a>
80001e0a:	429000ef          	jal	ra,80002a32 <iprintf>
80001e0e:	00002517          	auipc	a0,0x2
80001e12:	1e650513          	addi	a0,a0,486 # 80003ff4 <_read_r+0x286>
80001e16:	5d9000ef          	jal	ra,80002bee <puts>
80001e1a:	0c800513          	li	a0,200
80001e1e:	f28fe0ef          	jal	ra,80000546 <delay_1ms>
80001e22:	bed9                	j	800019f8 <main+0x8c>

80001e24 <KeyExpansion>:
80001e24:	7139                	addi	sp,sp,-64
80001e26:	de22                	sw	s0,60(sp)
80001e28:	0080                	addi	s0,sp,64
80001e2a:	fca42623          	sw	a0,-52(s0)
80001e2e:	fcb42423          	sw	a1,-56(s0)
80001e32:	fe042623          	sw	zero,-20(s0)
80001e36:	a861                	j	80001ece <KeyExpansion+0xaa>
80001e38:	fec42783          	lw	a5,-20(s0)
80001e3c:	078a                	slli	a5,a5,0x2
80001e3e:	fc842703          	lw	a4,-56(s0)
80001e42:	973e                	add	a4,a4,a5
80001e44:	fec42783          	lw	a5,-20(s0)
80001e48:	078a                	slli	a5,a5,0x2
80001e4a:	fcc42683          	lw	a3,-52(s0)
80001e4e:	97b6                	add	a5,a5,a3
80001e50:	00074703          	lbu	a4,0(a4)
80001e54:	00e78023          	sb	a4,0(a5)
80001e58:	fec42783          	lw	a5,-20(s0)
80001e5c:	078a                	slli	a5,a5,0x2
80001e5e:	0785                	addi	a5,a5,1
80001e60:	fc842703          	lw	a4,-56(s0)
80001e64:	973e                	add	a4,a4,a5
80001e66:	fec42783          	lw	a5,-20(s0)
80001e6a:	078a                	slli	a5,a5,0x2
80001e6c:	0785                	addi	a5,a5,1
80001e6e:	fcc42683          	lw	a3,-52(s0)
80001e72:	97b6                	add	a5,a5,a3
80001e74:	00074703          	lbu	a4,0(a4)
80001e78:	00e78023          	sb	a4,0(a5)
80001e7c:	fec42783          	lw	a5,-20(s0)
80001e80:	078a                	slli	a5,a5,0x2
80001e82:	0789                	addi	a5,a5,2
80001e84:	fc842703          	lw	a4,-56(s0)
80001e88:	973e                	add	a4,a4,a5
80001e8a:	fec42783          	lw	a5,-20(s0)
80001e8e:	078a                	slli	a5,a5,0x2
80001e90:	0789                	addi	a5,a5,2
80001e92:	fcc42683          	lw	a3,-52(s0)
80001e96:	97b6                	add	a5,a5,a3
80001e98:	00074703          	lbu	a4,0(a4)
80001e9c:	00e78023          	sb	a4,0(a5)
80001ea0:	fec42783          	lw	a5,-20(s0)
80001ea4:	078a                	slli	a5,a5,0x2
80001ea6:	078d                	addi	a5,a5,3
80001ea8:	fc842703          	lw	a4,-56(s0)
80001eac:	973e                	add	a4,a4,a5
80001eae:	fec42783          	lw	a5,-20(s0)
80001eb2:	078a                	slli	a5,a5,0x2
80001eb4:	078d                	addi	a5,a5,3
80001eb6:	fcc42683          	lw	a3,-52(s0)
80001eba:	97b6                	add	a5,a5,a3
80001ebc:	00074703          	lbu	a4,0(a4)
80001ec0:	00e78023          	sb	a4,0(a5)
80001ec4:	fec42783          	lw	a5,-20(s0)
80001ec8:	0785                	addi	a5,a5,1
80001eca:	fef42623          	sw	a5,-20(s0)
80001ece:	fec42703          	lw	a4,-20(s0)
80001ed2:	478d                	li	a5,3
80001ed4:	f6e7f2e3          	bgeu	a5,a4,80001e38 <KeyExpansion+0x14>
80001ed8:	4791                	li	a5,4
80001eda:	fef42623          	sw	a5,-20(s0)
80001ede:	aac9                	j	800020b0 <KeyExpansion+0x28c>
80001ee0:	fec42783          	lw	a5,-20(s0)
80001ee4:	17fd                	addi	a5,a5,-1
80001ee6:	078a                	slli	a5,a5,0x2
80001ee8:	fef42423          	sw	a5,-24(s0)
80001eec:	fcc42703          	lw	a4,-52(s0)
80001ef0:	fe842783          	lw	a5,-24(s0)
80001ef4:	97ba                	add	a5,a5,a4
80001ef6:	0007c783          	lbu	a5,0(a5)
80001efa:	fcf40e23          	sb	a5,-36(s0)
80001efe:	fe842783          	lw	a5,-24(s0)
80001f02:	0785                	addi	a5,a5,1
80001f04:	fcc42703          	lw	a4,-52(s0)
80001f08:	97ba                	add	a5,a5,a4
80001f0a:	0007c783          	lbu	a5,0(a5)
80001f0e:	fcf40ea3          	sb	a5,-35(s0)
80001f12:	fe842783          	lw	a5,-24(s0)
80001f16:	0789                	addi	a5,a5,2
80001f18:	fcc42703          	lw	a4,-52(s0)
80001f1c:	97ba                	add	a5,a5,a4
80001f1e:	0007c783          	lbu	a5,0(a5)
80001f22:	fcf40f23          	sb	a5,-34(s0)
80001f26:	fe842783          	lw	a5,-24(s0)
80001f2a:	078d                	addi	a5,a5,3
80001f2c:	fcc42703          	lw	a4,-52(s0)
80001f30:	97ba                	add	a5,a5,a4
80001f32:	0007c783          	lbu	a5,0(a5)
80001f36:	fcf40fa3          	sb	a5,-33(s0)
80001f3a:	fec42783          	lw	a5,-20(s0)
80001f3e:	8b8d                	andi	a5,a5,3
80001f40:	e7d5                	bnez	a5,80001fec <KeyExpansion+0x1c8>
80001f42:	fdc44783          	lbu	a5,-36(s0)
80001f46:	fef403a3          	sb	a5,-25(s0)
80001f4a:	fdd44783          	lbu	a5,-35(s0)
80001f4e:	fcf40e23          	sb	a5,-36(s0)
80001f52:	fde44783          	lbu	a5,-34(s0)
80001f56:	fcf40ea3          	sb	a5,-35(s0)
80001f5a:	fdf44783          	lbu	a5,-33(s0)
80001f5e:	fcf40f23          	sb	a5,-34(s0)
80001f62:	fe744783          	lbu	a5,-25(s0)
80001f66:	fcf40fa3          	sb	a5,-33(s0)
80001f6a:	fdc44783          	lbu	a5,-36(s0)
80001f6e:	873e                	mv	a4,a5
80001f70:	00002797          	auipc	a5,0x2
80001f74:	0b478793          	addi	a5,a5,180 # 80004024 <sbox>
80001f78:	97ba                	add	a5,a5,a4
80001f7a:	0007c783          	lbu	a5,0(a5)
80001f7e:	fcf40e23          	sb	a5,-36(s0)
80001f82:	fdd44783          	lbu	a5,-35(s0)
80001f86:	873e                	mv	a4,a5
80001f88:	00002797          	auipc	a5,0x2
80001f8c:	09c78793          	addi	a5,a5,156 # 80004024 <sbox>
80001f90:	97ba                	add	a5,a5,a4
80001f92:	0007c783          	lbu	a5,0(a5)
80001f96:	fcf40ea3          	sb	a5,-35(s0)
80001f9a:	fde44783          	lbu	a5,-34(s0)
80001f9e:	873e                	mv	a4,a5
80001fa0:	00002797          	auipc	a5,0x2
80001fa4:	08478793          	addi	a5,a5,132 # 80004024 <sbox>
80001fa8:	97ba                	add	a5,a5,a4
80001faa:	0007c783          	lbu	a5,0(a5)
80001fae:	fcf40f23          	sb	a5,-34(s0)
80001fb2:	fdf44783          	lbu	a5,-33(s0)
80001fb6:	873e                	mv	a4,a5
80001fb8:	00002797          	auipc	a5,0x2
80001fbc:	06c78793          	addi	a5,a5,108 # 80004024 <sbox>
80001fc0:	97ba                	add	a5,a5,a4
80001fc2:	0007c783          	lbu	a5,0(a5)
80001fc6:	fcf40fa3          	sb	a5,-33(s0)
80001fca:	fdc44703          	lbu	a4,-36(s0)
80001fce:	fec42783          	lw	a5,-20(s0)
80001fd2:	8389                	srli	a5,a5,0x2
80001fd4:	00002697          	auipc	a3,0x2
80001fd8:	15068693          	addi	a3,a3,336 # 80004124 <Rcon>
80001fdc:	97b6                	add	a5,a5,a3
80001fde:	0007c783          	lbu	a5,0(a5)
80001fe2:	8fb9                	xor	a5,a5,a4
80001fe4:	0ff7f793          	andi	a5,a5,255
80001fe8:	fcf40e23          	sb	a5,-36(s0)
80001fec:	fec42783          	lw	a5,-20(s0)
80001ff0:	078a                	slli	a5,a5,0x2
80001ff2:	fef42023          	sw	a5,-32(s0)
80001ff6:	fec42783          	lw	a5,-20(s0)
80001ffa:	17f1                	addi	a5,a5,-4
80001ffc:	078a                	slli	a5,a5,0x2
80001ffe:	fef42423          	sw	a5,-24(s0)
80002002:	fcc42703          	lw	a4,-52(s0)
80002006:	fe842783          	lw	a5,-24(s0)
8000200a:	97ba                	add	a5,a5,a4
8000200c:	0007c683          	lbu	a3,0(a5)
80002010:	fdc44703          	lbu	a4,-36(s0)
80002014:	fcc42603          	lw	a2,-52(s0)
80002018:	fe042783          	lw	a5,-32(s0)
8000201c:	97b2                	add	a5,a5,a2
8000201e:	8f35                	xor	a4,a4,a3
80002020:	0ff77713          	andi	a4,a4,255
80002024:	00e78023          	sb	a4,0(a5)
80002028:	fe842783          	lw	a5,-24(s0)
8000202c:	0785                	addi	a5,a5,1
8000202e:	fcc42703          	lw	a4,-52(s0)
80002032:	97ba                	add	a5,a5,a4
80002034:	0007c683          	lbu	a3,0(a5)
80002038:	fdd44703          	lbu	a4,-35(s0)
8000203c:	fe042783          	lw	a5,-32(s0)
80002040:	0785                	addi	a5,a5,1
80002042:	fcc42603          	lw	a2,-52(s0)
80002046:	97b2                	add	a5,a5,a2
80002048:	8f35                	xor	a4,a4,a3
8000204a:	0ff77713          	andi	a4,a4,255
8000204e:	00e78023          	sb	a4,0(a5)
80002052:	fe842783          	lw	a5,-24(s0)
80002056:	0789                	addi	a5,a5,2
80002058:	fcc42703          	lw	a4,-52(s0)
8000205c:	97ba                	add	a5,a5,a4
8000205e:	0007c683          	lbu	a3,0(a5)
80002062:	fde44703          	lbu	a4,-34(s0)
80002066:	fe042783          	lw	a5,-32(s0)
8000206a:	0789                	addi	a5,a5,2
8000206c:	fcc42603          	lw	a2,-52(s0)
80002070:	97b2                	add	a5,a5,a2
80002072:	8f35                	xor	a4,a4,a3
80002074:	0ff77713          	andi	a4,a4,255
80002078:	00e78023          	sb	a4,0(a5)
8000207c:	fe842783          	lw	a5,-24(s0)
80002080:	078d                	addi	a5,a5,3
80002082:	fcc42703          	lw	a4,-52(s0)
80002086:	97ba                	add	a5,a5,a4
80002088:	0007c683          	lbu	a3,0(a5)
8000208c:	fdf44703          	lbu	a4,-33(s0)
80002090:	fe042783          	lw	a5,-32(s0)
80002094:	078d                	addi	a5,a5,3
80002096:	fcc42603          	lw	a2,-52(s0)
8000209a:	97b2                	add	a5,a5,a2
8000209c:	8f35                	xor	a4,a4,a3
8000209e:	0ff77713          	andi	a4,a4,255
800020a2:	00e78023          	sb	a4,0(a5)
800020a6:	fec42783          	lw	a5,-20(s0)
800020aa:	0785                	addi	a5,a5,1
800020ac:	fef42623          	sw	a5,-20(s0)
800020b0:	fec42703          	lw	a4,-20(s0)
800020b4:	02b00793          	li	a5,43
800020b8:	e2e7f4e3          	bgeu	a5,a4,80001ee0 <KeyExpansion+0xbc>
800020bc:	0001                	nop
800020be:	0001                	nop
800020c0:	5472                	lw	s0,60(sp)
800020c2:	6121                	addi	sp,sp,64
800020c4:	8082                	ret

800020c6 <AES_init_ctx>:
800020c6:	1101                	addi	sp,sp,-32
800020c8:	ce06                	sw	ra,28(sp)
800020ca:	cc22                	sw	s0,24(sp)
800020cc:	1000                	addi	s0,sp,32
800020ce:	fea42623          	sw	a0,-20(s0)
800020d2:	feb42423          	sw	a1,-24(s0)
800020d6:	fec42783          	lw	a5,-20(s0)
800020da:	fe842583          	lw	a1,-24(s0)
800020de:	853e                	mv	a0,a5
800020e0:	3391                	jal	80001e24 <KeyExpansion>
800020e2:	0001                	nop
800020e4:	40f2                	lw	ra,28(sp)
800020e6:	4462                	lw	s0,24(sp)
800020e8:	6105                	addi	sp,sp,32
800020ea:	8082                	ret

800020ec <AddRoundKey>:
800020ec:	7179                	addi	sp,sp,-48
800020ee:	d622                	sw	s0,44(sp)
800020f0:	1800                	addi	s0,sp,48
800020f2:	87aa                	mv	a5,a0
800020f4:	fcb42c23          	sw	a1,-40(s0)
800020f8:	fcc42a23          	sw	a2,-44(s0)
800020fc:	fcf40fa3          	sb	a5,-33(s0)
80002100:	fe0407a3          	sb	zero,-17(s0)
80002104:	a8b5                	j	80002180 <AddRoundKey+0x94>
80002106:	fe040723          	sb	zero,-18(s0)
8000210a:	a08d                	j	8000216c <AddRoundKey+0x80>
8000210c:	fef44703          	lbu	a4,-17(s0)
80002110:	fee44783          	lbu	a5,-18(s0)
80002114:	fd842683          	lw	a3,-40(s0)
80002118:	070a                	slli	a4,a4,0x2
8000211a:	9736                	add	a4,a4,a3
8000211c:	97ba                	add	a5,a5,a4
8000211e:	0007c603          	lbu	a2,0(a5)
80002122:	fdf44783          	lbu	a5,-33(s0)
80002126:	00279713          	slli	a4,a5,0x2
8000212a:	fef44783          	lbu	a5,-17(s0)
8000212e:	97ba                	add	a5,a5,a4
80002130:	00279713          	slli	a4,a5,0x2
80002134:	fee44783          	lbu	a5,-18(s0)
80002138:	97ba                	add	a5,a5,a4
8000213a:	873e                	mv	a4,a5
8000213c:	fd442783          	lw	a5,-44(s0)
80002140:	97ba                	add	a5,a5,a4
80002142:	0007c703          	lbu	a4,0(a5)
80002146:	fef44683          	lbu	a3,-17(s0)
8000214a:	fee44783          	lbu	a5,-18(s0)
8000214e:	8f31                	xor	a4,a4,a2
80002150:	0ff77713          	andi	a4,a4,255
80002154:	fd842603          	lw	a2,-40(s0)
80002158:	068a                	slli	a3,a3,0x2
8000215a:	96b2                	add	a3,a3,a2
8000215c:	97b6                	add	a5,a5,a3
8000215e:	00e78023          	sb	a4,0(a5)
80002162:	fee44783          	lbu	a5,-18(s0)
80002166:	0785                	addi	a5,a5,1
80002168:	fef40723          	sb	a5,-18(s0)
8000216c:	fee44703          	lbu	a4,-18(s0)
80002170:	478d                	li	a5,3
80002172:	f8e7fde3          	bgeu	a5,a4,8000210c <AddRoundKey+0x20>
80002176:	fef44783          	lbu	a5,-17(s0)
8000217a:	0785                	addi	a5,a5,1
8000217c:	fef407a3          	sb	a5,-17(s0)
80002180:	fef44703          	lbu	a4,-17(s0)
80002184:	478d                	li	a5,3
80002186:	f8e7f0e3          	bgeu	a5,a4,80002106 <AddRoundKey+0x1a>
8000218a:	0001                	nop
8000218c:	0001                	nop
8000218e:	5432                	lw	s0,44(sp)
80002190:	6145                	addi	sp,sp,48
80002192:	8082                	ret

80002194 <SubBytes>:
80002194:	7179                	addi	sp,sp,-48
80002196:	d622                	sw	s0,44(sp)
80002198:	1800                	addi	s0,sp,48
8000219a:	fca42e23          	sw	a0,-36(s0)
8000219e:	fe0407a3          	sb	zero,-17(s0)
800021a2:	a08d                	j	80002204 <SubBytes+0x70>
800021a4:	fe040723          	sb	zero,-18(s0)
800021a8:	a0a1                	j	800021f0 <SubBytes+0x5c>
800021aa:	fee44703          	lbu	a4,-18(s0)
800021ae:	fef44783          	lbu	a5,-17(s0)
800021b2:	fdc42683          	lw	a3,-36(s0)
800021b6:	070a                	slli	a4,a4,0x2
800021b8:	9736                	add	a4,a4,a3
800021ba:	97ba                	add	a5,a5,a4
800021bc:	0007c783          	lbu	a5,0(a5)
800021c0:	863e                	mv	a2,a5
800021c2:	fee44683          	lbu	a3,-18(s0)
800021c6:	fef44783          	lbu	a5,-17(s0)
800021ca:	00002717          	auipc	a4,0x2
800021ce:	e5a70713          	addi	a4,a4,-422 # 80004024 <sbox>
800021d2:	9732                	add	a4,a4,a2
800021d4:	00074703          	lbu	a4,0(a4)
800021d8:	fdc42603          	lw	a2,-36(s0)
800021dc:	068a                	slli	a3,a3,0x2
800021de:	96b2                	add	a3,a3,a2
800021e0:	97b6                	add	a5,a5,a3
800021e2:	00e78023          	sb	a4,0(a5)
800021e6:	fee44783          	lbu	a5,-18(s0)
800021ea:	0785                	addi	a5,a5,1
800021ec:	fef40723          	sb	a5,-18(s0)
800021f0:	fee44703          	lbu	a4,-18(s0)
800021f4:	478d                	li	a5,3
800021f6:	fae7fae3          	bgeu	a5,a4,800021aa <SubBytes+0x16>
800021fa:	fef44783          	lbu	a5,-17(s0)
800021fe:	0785                	addi	a5,a5,1
80002200:	fef407a3          	sb	a5,-17(s0)
80002204:	fef44703          	lbu	a4,-17(s0)
80002208:	478d                	li	a5,3
8000220a:	f8e7fde3          	bgeu	a5,a4,800021a4 <SubBytes+0x10>
8000220e:	0001                	nop
80002210:	0001                	nop
80002212:	5432                	lw	s0,44(sp)
80002214:	6145                	addi	sp,sp,48
80002216:	8082                	ret

80002218 <ShiftRows>:
80002218:	7179                	addi	sp,sp,-48
8000221a:	d622                	sw	s0,44(sp)
8000221c:	1800                	addi	s0,sp,48
8000221e:	fca42e23          	sw	a0,-36(s0)
80002222:	fdc42783          	lw	a5,-36(s0)
80002226:	0017c783          	lbu	a5,1(a5)
8000222a:	fef407a3          	sb	a5,-17(s0)
8000222e:	fdc42783          	lw	a5,-36(s0)
80002232:	0057c703          	lbu	a4,5(a5)
80002236:	fdc42783          	lw	a5,-36(s0)
8000223a:	00e780a3          	sb	a4,1(a5)
8000223e:	fdc42783          	lw	a5,-36(s0)
80002242:	0097c703          	lbu	a4,9(a5)
80002246:	fdc42783          	lw	a5,-36(s0)
8000224a:	00e782a3          	sb	a4,5(a5)
8000224e:	fdc42783          	lw	a5,-36(s0)
80002252:	00d7c703          	lbu	a4,13(a5)
80002256:	fdc42783          	lw	a5,-36(s0)
8000225a:	00e784a3          	sb	a4,9(a5)
8000225e:	fdc42783          	lw	a5,-36(s0)
80002262:	fef44703          	lbu	a4,-17(s0)
80002266:	00e786a3          	sb	a4,13(a5)
8000226a:	fdc42783          	lw	a5,-36(s0)
8000226e:	0027c783          	lbu	a5,2(a5)
80002272:	fef407a3          	sb	a5,-17(s0)
80002276:	fdc42783          	lw	a5,-36(s0)
8000227a:	00a7c703          	lbu	a4,10(a5)
8000227e:	fdc42783          	lw	a5,-36(s0)
80002282:	00e78123          	sb	a4,2(a5)
80002286:	fdc42783          	lw	a5,-36(s0)
8000228a:	fef44703          	lbu	a4,-17(s0)
8000228e:	00e78523          	sb	a4,10(a5)
80002292:	fdc42783          	lw	a5,-36(s0)
80002296:	0067c783          	lbu	a5,6(a5)
8000229a:	fef407a3          	sb	a5,-17(s0)
8000229e:	fdc42783          	lw	a5,-36(s0)
800022a2:	00e7c703          	lbu	a4,14(a5)
800022a6:	fdc42783          	lw	a5,-36(s0)
800022aa:	00e78323          	sb	a4,6(a5)
800022ae:	fdc42783          	lw	a5,-36(s0)
800022b2:	fef44703          	lbu	a4,-17(s0)
800022b6:	00e78723          	sb	a4,14(a5)
800022ba:	fdc42783          	lw	a5,-36(s0)
800022be:	0037c783          	lbu	a5,3(a5)
800022c2:	fef407a3          	sb	a5,-17(s0)
800022c6:	fdc42783          	lw	a5,-36(s0)
800022ca:	00f7c703          	lbu	a4,15(a5)
800022ce:	fdc42783          	lw	a5,-36(s0)
800022d2:	00e781a3          	sb	a4,3(a5)
800022d6:	fdc42783          	lw	a5,-36(s0)
800022da:	00b7c703          	lbu	a4,11(a5)
800022de:	fdc42783          	lw	a5,-36(s0)
800022e2:	00e787a3          	sb	a4,15(a5)
800022e6:	fdc42783          	lw	a5,-36(s0)
800022ea:	0077c703          	lbu	a4,7(a5)
800022ee:	fdc42783          	lw	a5,-36(s0)
800022f2:	00e785a3          	sb	a4,11(a5)
800022f6:	fdc42783          	lw	a5,-36(s0)
800022fa:	fef44703          	lbu	a4,-17(s0)
800022fe:	00e783a3          	sb	a4,7(a5)
80002302:	0001                	nop
80002304:	5432                	lw	s0,44(sp)
80002306:	6145                	addi	sp,sp,48
80002308:	8082                	ret

8000230a <xtime>:
8000230a:	1101                	addi	sp,sp,-32
8000230c:	ce22                	sw	s0,28(sp)
8000230e:	1000                	addi	s0,sp,32
80002310:	87aa                	mv	a5,a0
80002312:	fef407a3          	sb	a5,-17(s0)
80002316:	fef44783          	lbu	a5,-17(s0)
8000231a:	0786                	slli	a5,a5,0x1
8000231c:	01879693          	slli	a3,a5,0x18
80002320:	86e1                	srai	a3,a3,0x18
80002322:	fef44783          	lbu	a5,-17(s0)
80002326:	839d                	srli	a5,a5,0x7
80002328:	0ff7f793          	andi	a5,a5,255
8000232c:	873e                	mv	a4,a5
8000232e:	070e                	slli	a4,a4,0x3
80002330:	8f1d                	sub	a4,a4,a5
80002332:	070a                	slli	a4,a4,0x2
80002334:	40f707b3          	sub	a5,a4,a5
80002338:	0ff7f793          	andi	a5,a5,255
8000233c:	07e2                	slli	a5,a5,0x18
8000233e:	87e1                	srai	a5,a5,0x18
80002340:	8fb5                	xor	a5,a5,a3
80002342:	07e2                	slli	a5,a5,0x18
80002344:	87e1                	srai	a5,a5,0x18
80002346:	0ff7f793          	andi	a5,a5,255
8000234a:	853e                	mv	a0,a5
8000234c:	4472                	lw	s0,28(sp)
8000234e:	6105                	addi	sp,sp,32
80002350:	8082                	ret

80002352 <MixColumns>:
80002352:	7179                	addi	sp,sp,-48
80002354:	d606                	sw	ra,44(sp)
80002356:	d422                	sw	s0,40(sp)
80002358:	1800                	addi	s0,sp,48
8000235a:	fca42e23          	sw	a0,-36(s0)
8000235e:	fe0407a3          	sb	zero,-17(s0)
80002362:	a419                	j	80002568 <MixColumns+0x216>
80002364:	fef44783          	lbu	a5,-17(s0)
80002368:	fdc42703          	lw	a4,-36(s0)
8000236c:	078a                	slli	a5,a5,0x2
8000236e:	97ba                	add	a5,a5,a4
80002370:	0007c783          	lbu	a5,0(a5)
80002374:	fef40723          	sb	a5,-18(s0)
80002378:	fef44783          	lbu	a5,-17(s0)
8000237c:	fdc42703          	lw	a4,-36(s0)
80002380:	078a                	slli	a5,a5,0x2
80002382:	97ba                	add	a5,a5,a4
80002384:	0007c703          	lbu	a4,0(a5)
80002388:	fef44783          	lbu	a5,-17(s0)
8000238c:	fdc42683          	lw	a3,-36(s0)
80002390:	078a                	slli	a5,a5,0x2
80002392:	97b6                	add	a5,a5,a3
80002394:	0017c783          	lbu	a5,1(a5)
80002398:	8fb9                	xor	a5,a5,a4
8000239a:	0ff7f713          	andi	a4,a5,255
8000239e:	fef44783          	lbu	a5,-17(s0)
800023a2:	fdc42683          	lw	a3,-36(s0)
800023a6:	078a                	slli	a5,a5,0x2
800023a8:	97b6                	add	a5,a5,a3
800023aa:	0027c783          	lbu	a5,2(a5)
800023ae:	8fb9                	xor	a5,a5,a4
800023b0:	0ff7f713          	andi	a4,a5,255
800023b4:	fef44783          	lbu	a5,-17(s0)
800023b8:	fdc42683          	lw	a3,-36(s0)
800023bc:	078a                	slli	a5,a5,0x2
800023be:	97b6                	add	a5,a5,a3
800023c0:	0037c783          	lbu	a5,3(a5)
800023c4:	8fb9                	xor	a5,a5,a4
800023c6:	fef406a3          	sb	a5,-19(s0)
800023ca:	fef44783          	lbu	a5,-17(s0)
800023ce:	fdc42703          	lw	a4,-36(s0)
800023d2:	078a                	slli	a5,a5,0x2
800023d4:	97ba                	add	a5,a5,a4
800023d6:	0007c703          	lbu	a4,0(a5)
800023da:	fef44783          	lbu	a5,-17(s0)
800023de:	fdc42683          	lw	a3,-36(s0)
800023e2:	078a                	slli	a5,a5,0x2
800023e4:	97b6                	add	a5,a5,a3
800023e6:	0017c783          	lbu	a5,1(a5)
800023ea:	8fb9                	xor	a5,a5,a4
800023ec:	fef40623          	sb	a5,-20(s0)
800023f0:	fec44783          	lbu	a5,-20(s0)
800023f4:	853e                	mv	a0,a5
800023f6:	3f11                	jal	8000230a <xtime>
800023f8:	87aa                	mv	a5,a0
800023fa:	fef40623          	sb	a5,-20(s0)
800023fe:	fef44783          	lbu	a5,-17(s0)
80002402:	fdc42703          	lw	a4,-36(s0)
80002406:	078a                	slli	a5,a5,0x2
80002408:	97ba                	add	a5,a5,a4
8000240a:	0007c683          	lbu	a3,0(a5)
8000240e:	fec44703          	lbu	a4,-20(s0)
80002412:	fed44783          	lbu	a5,-19(s0)
80002416:	8fb9                	xor	a5,a5,a4
80002418:	0ff7f713          	andi	a4,a5,255
8000241c:	fef44783          	lbu	a5,-17(s0)
80002420:	8f35                	xor	a4,a4,a3
80002422:	0ff77713          	andi	a4,a4,255
80002426:	fdc42683          	lw	a3,-36(s0)
8000242a:	078a                	slli	a5,a5,0x2
8000242c:	97b6                	add	a5,a5,a3
8000242e:	00e78023          	sb	a4,0(a5)
80002432:	fef44783          	lbu	a5,-17(s0)
80002436:	fdc42703          	lw	a4,-36(s0)
8000243a:	078a                	slli	a5,a5,0x2
8000243c:	97ba                	add	a5,a5,a4
8000243e:	0017c703          	lbu	a4,1(a5)
80002442:	fef44783          	lbu	a5,-17(s0)
80002446:	fdc42683          	lw	a3,-36(s0)
8000244a:	078a                	slli	a5,a5,0x2
8000244c:	97b6                	add	a5,a5,a3
8000244e:	0027c783          	lbu	a5,2(a5)
80002452:	8fb9                	xor	a5,a5,a4
80002454:	fef40623          	sb	a5,-20(s0)
80002458:	fec44783          	lbu	a5,-20(s0)
8000245c:	853e                	mv	a0,a5
8000245e:	3575                	jal	8000230a <xtime>
80002460:	87aa                	mv	a5,a0
80002462:	fef40623          	sb	a5,-20(s0)
80002466:	fef44783          	lbu	a5,-17(s0)
8000246a:	fdc42703          	lw	a4,-36(s0)
8000246e:	078a                	slli	a5,a5,0x2
80002470:	97ba                	add	a5,a5,a4
80002472:	0017c683          	lbu	a3,1(a5)
80002476:	fec44703          	lbu	a4,-20(s0)
8000247a:	fed44783          	lbu	a5,-19(s0)
8000247e:	8fb9                	xor	a5,a5,a4
80002480:	0ff7f713          	andi	a4,a5,255
80002484:	fef44783          	lbu	a5,-17(s0)
80002488:	8f35                	xor	a4,a4,a3
8000248a:	0ff77713          	andi	a4,a4,255
8000248e:	fdc42683          	lw	a3,-36(s0)
80002492:	078a                	slli	a5,a5,0x2
80002494:	97b6                	add	a5,a5,a3
80002496:	00e780a3          	sb	a4,1(a5)
8000249a:	fef44783          	lbu	a5,-17(s0)
8000249e:	fdc42703          	lw	a4,-36(s0)
800024a2:	078a                	slli	a5,a5,0x2
800024a4:	97ba                	add	a5,a5,a4
800024a6:	0027c703          	lbu	a4,2(a5)
800024aa:	fef44783          	lbu	a5,-17(s0)
800024ae:	fdc42683          	lw	a3,-36(s0)
800024b2:	078a                	slli	a5,a5,0x2
800024b4:	97b6                	add	a5,a5,a3
800024b6:	0037c783          	lbu	a5,3(a5)
800024ba:	8fb9                	xor	a5,a5,a4
800024bc:	fef40623          	sb	a5,-20(s0)
800024c0:	fec44783          	lbu	a5,-20(s0)
800024c4:	853e                	mv	a0,a5
800024c6:	3591                	jal	8000230a <xtime>
800024c8:	87aa                	mv	a5,a0
800024ca:	fef40623          	sb	a5,-20(s0)
800024ce:	fef44783          	lbu	a5,-17(s0)
800024d2:	fdc42703          	lw	a4,-36(s0)
800024d6:	078a                	slli	a5,a5,0x2
800024d8:	97ba                	add	a5,a5,a4
800024da:	0027c683          	lbu	a3,2(a5)
800024de:	fec44703          	lbu	a4,-20(s0)
800024e2:	fed44783          	lbu	a5,-19(s0)
800024e6:	8fb9                	xor	a5,a5,a4
800024e8:	0ff7f713          	andi	a4,a5,255
800024ec:	fef44783          	lbu	a5,-17(s0)
800024f0:	8f35                	xor	a4,a4,a3
800024f2:	0ff77713          	andi	a4,a4,255
800024f6:	fdc42683          	lw	a3,-36(s0)
800024fa:	078a                	slli	a5,a5,0x2
800024fc:	97b6                	add	a5,a5,a3
800024fe:	00e78123          	sb	a4,2(a5)
80002502:	fef44783          	lbu	a5,-17(s0)
80002506:	fdc42703          	lw	a4,-36(s0)
8000250a:	078a                	slli	a5,a5,0x2
8000250c:	97ba                	add	a5,a5,a4
8000250e:	0037c703          	lbu	a4,3(a5)
80002512:	fee44783          	lbu	a5,-18(s0)
80002516:	8fb9                	xor	a5,a5,a4
80002518:	fef40623          	sb	a5,-20(s0)
8000251c:	fec44783          	lbu	a5,-20(s0)
80002520:	853e                	mv	a0,a5
80002522:	33e5                	jal	8000230a <xtime>
80002524:	87aa                	mv	a5,a0
80002526:	fef40623          	sb	a5,-20(s0)
8000252a:	fef44783          	lbu	a5,-17(s0)
8000252e:	fdc42703          	lw	a4,-36(s0)
80002532:	078a                	slli	a5,a5,0x2
80002534:	97ba                	add	a5,a5,a4
80002536:	0037c683          	lbu	a3,3(a5)
8000253a:	fec44703          	lbu	a4,-20(s0)
8000253e:	fed44783          	lbu	a5,-19(s0)
80002542:	8fb9                	xor	a5,a5,a4
80002544:	0ff7f713          	andi	a4,a5,255
80002548:	fef44783          	lbu	a5,-17(s0)
8000254c:	8f35                	xor	a4,a4,a3
8000254e:	0ff77713          	andi	a4,a4,255
80002552:	fdc42683          	lw	a3,-36(s0)
80002556:	078a                	slli	a5,a5,0x2
80002558:	97b6                	add	a5,a5,a3
8000255a:	00e781a3          	sb	a4,3(a5)
8000255e:	fef44783          	lbu	a5,-17(s0)
80002562:	0785                	addi	a5,a5,1
80002564:	fef407a3          	sb	a5,-17(s0)
80002568:	fef44703          	lbu	a4,-17(s0)
8000256c:	478d                	li	a5,3
8000256e:	dee7fbe3          	bgeu	a5,a4,80002364 <MixColumns+0x12>
80002572:	0001                	nop
80002574:	0001                	nop
80002576:	50b2                	lw	ra,44(sp)
80002578:	5422                	lw	s0,40(sp)
8000257a:	6145                	addi	sp,sp,48
8000257c:	8082                	ret

8000257e <Cipher>:
8000257e:	7179                	addi	sp,sp,-48
80002580:	d606                	sw	ra,44(sp)
80002582:	d422                	sw	s0,40(sp)
80002584:	1800                	addi	s0,sp,48
80002586:	fca42e23          	sw	a0,-36(s0)
8000258a:	fcb42c23          	sw	a1,-40(s0)
8000258e:	fe0407a3          	sb	zero,-17(s0)
80002592:	fd842603          	lw	a2,-40(s0)
80002596:	fdc42583          	lw	a1,-36(s0)
8000259a:	4501                	li	a0,0
8000259c:	3e81                	jal	800020ec <AddRoundKey>
8000259e:	4785                	li	a5,1
800025a0:	fef407a3          	sb	a5,-17(s0)
800025a4:	fdc42503          	lw	a0,-36(s0)
800025a8:	36f5                	jal	80002194 <SubBytes>
800025aa:	fdc42503          	lw	a0,-36(s0)
800025ae:	31ad                	jal	80002218 <ShiftRows>
800025b0:	fef44703          	lbu	a4,-17(s0)
800025b4:	47a9                	li	a5,10
800025b6:	02f70363          	beq	a4,a5,800025dc <Cipher+0x5e>
800025ba:	fdc42503          	lw	a0,-36(s0)
800025be:	3b51                	jal	80002352 <MixColumns>
800025c0:	fef44783          	lbu	a5,-17(s0)
800025c4:	fd842603          	lw	a2,-40(s0)
800025c8:	fdc42583          	lw	a1,-36(s0)
800025cc:	853e                	mv	a0,a5
800025ce:	3e39                	jal	800020ec <AddRoundKey>
800025d0:	fef44783          	lbu	a5,-17(s0)
800025d4:	0785                	addi	a5,a5,1
800025d6:	fef407a3          	sb	a5,-17(s0)
800025da:	b7e9                	j	800025a4 <Cipher+0x26>
800025dc:	0001                	nop
800025de:	fd842603          	lw	a2,-40(s0)
800025e2:	fdc42583          	lw	a1,-36(s0)
800025e6:	4529                	li	a0,10
800025e8:	b05ff0ef          	jal	ra,800020ec <AddRoundKey>
800025ec:	0001                	nop
800025ee:	50b2                	lw	ra,44(sp)
800025f0:	5422                	lw	s0,40(sp)
800025f2:	6145                	addi	sp,sp,48
800025f4:	8082                	ret

800025f6 <AES_ECB_encrypt>:
800025f6:	1101                	addi	sp,sp,-32
800025f8:	ce06                	sw	ra,28(sp)
800025fa:	cc22                	sw	s0,24(sp)
800025fc:	1000                	addi	s0,sp,32
800025fe:	fea42623          	sw	a0,-20(s0)
80002602:	feb42423          	sw	a1,-24(s0)
80002606:	fec42783          	lw	a5,-20(s0)
8000260a:	85be                	mv	a1,a5
8000260c:	fe842503          	lw	a0,-24(s0)
80002610:	37bd                	jal	8000257e <Cipher>
80002612:	0001                	nop
80002614:	40f2                	lw	ra,28(sp)
80002616:	4462                	lw	s0,24(sp)
80002618:	6105                	addi	sp,sp,32
8000261a:	8082                	ret

8000261c <__udivdi3>:
8000261c:	88aa                	mv	a7,a0
8000261e:	87ae                	mv	a5,a1
80002620:	8832                	mv	a6,a2
80002622:	8536                	mv	a0,a3
80002624:	8346                	mv	t1,a7
80002626:	20069963          	bnez	a3,80002838 <__udivdi3+0x21c>
8000262a:	00002697          	auipc	a3,0x2
8000262e:	b0668693          	addi	a3,a3,-1274 # 80004130 <__clz_tab>
80002632:	0cc5f063          	bgeu	a1,a2,800026f2 <__udivdi3+0xd6>
80002636:	6741                	lui	a4,0x10
80002638:	0ae67663          	bgeu	a2,a4,800026e4 <__udivdi3+0xc8>
8000263c:	0ff00713          	li	a4,255
80002640:	00c73733          	sltu	a4,a4,a2
80002644:	070e                	slli	a4,a4,0x3
80002646:	00e65533          	srl	a0,a2,a4
8000264a:	96aa                	add	a3,a3,a0
8000264c:	0006c683          	lbu	a3,0(a3)
80002650:	02000513          	li	a0,32
80002654:	9736                	add	a4,a4,a3
80002656:	40e506b3          	sub	a3,a0,a4
8000265a:	00e50c63          	beq	a0,a4,80002672 <__udivdi3+0x56>
8000265e:	00d797b3          	sll	a5,a5,a3
80002662:	00e8d733          	srl	a4,a7,a4
80002666:	00d61833          	sll	a6,a2,a3
8000266a:	00f765b3          	or	a1,a4,a5
8000266e:	00d89333          	sll	t1,a7,a3
80002672:	01085893          	srli	a7,a6,0x10
80002676:	0315d7b3          	divu	a5,a1,a7
8000267a:	01081613          	slli	a2,a6,0x10
8000267e:	8241                	srli	a2,a2,0x10
80002680:	01035713          	srli	a4,t1,0x10
80002684:	0315f6b3          	remu	a3,a1,a7
80002688:	853e                	mv	a0,a5
8000268a:	02f605b3          	mul	a1,a2,a5
8000268e:	06c2                	slli	a3,a3,0x10
80002690:	8f55                	or	a4,a4,a3
80002692:	00b77c63          	bgeu	a4,a1,800026aa <__udivdi3+0x8e>
80002696:	9742                	add	a4,a4,a6
80002698:	fff78513          	addi	a0,a5,-1
8000269c:	01076763          	bltu	a4,a6,800026aa <__udivdi3+0x8e>
800026a0:	00b77563          	bgeu	a4,a1,800026aa <__udivdi3+0x8e>
800026a4:	ffe78513          	addi	a0,a5,-2
800026a8:	9742                	add	a4,a4,a6
800026aa:	8f0d                	sub	a4,a4,a1
800026ac:	031777b3          	remu	a5,a4,a7
800026b0:	0342                	slli	t1,t1,0x10
800026b2:	01035313          	srli	t1,t1,0x10
800026b6:	03175733          	divu	a4,a4,a7
800026ba:	07c2                	slli	a5,a5,0x10
800026bc:	0067e333          	or	t1,a5,t1
800026c0:	02e606b3          	mul	a3,a2,a4
800026c4:	863a                	mv	a2,a4
800026c6:	00d37b63          	bgeu	t1,a3,800026dc <__udivdi3+0xc0>
800026ca:	9342                	add	t1,t1,a6
800026cc:	fff70613          	addi	a2,a4,-1 # ffff <__stack_size+0xf7ff>
800026d0:	01036663          	bltu	t1,a6,800026dc <__udivdi3+0xc0>
800026d4:	00d37463          	bgeu	t1,a3,800026dc <__udivdi3+0xc0>
800026d8:	ffe70613          	addi	a2,a4,-2
800026dc:	0542                	slli	a0,a0,0x10
800026de:	8d51                	or	a0,a0,a2
800026e0:	4581                	li	a1,0
800026e2:	a85d                	j	80002798 <__udivdi3+0x17c>
800026e4:	01000537          	lui	a0,0x1000
800026e8:	4741                	li	a4,16
800026ea:	f4a66ee3          	bltu	a2,a0,80002646 <__udivdi3+0x2a>
800026ee:	4761                	li	a4,24
800026f0:	bf99                	j	80002646 <__udivdi3+0x2a>
800026f2:	e601                	bnez	a2,800026fa <__udivdi3+0xde>
800026f4:	4705                	li	a4,1
800026f6:	02c75833          	divu	a6,a4,a2
800026fa:	6741                	lui	a4,0x10
800026fc:	08e87f63          	bgeu	a6,a4,8000279a <__udivdi3+0x17e>
80002700:	0ff00713          	li	a4,255
80002704:	01077363          	bgeu	a4,a6,8000270a <__udivdi3+0xee>
80002708:	4521                	li	a0,8
8000270a:	00a85733          	srl	a4,a6,a0
8000270e:	96ba                	add	a3,a3,a4
80002710:	0006c703          	lbu	a4,0(a3)
80002714:	02000613          	li	a2,32
80002718:	972a                	add	a4,a4,a0
8000271a:	40e606b3          	sub	a3,a2,a4
8000271e:	08e61563          	bne	a2,a4,800027a8 <__udivdi3+0x18c>
80002722:	410787b3          	sub	a5,a5,a6
80002726:	4585                	li	a1,1
80002728:	01085893          	srli	a7,a6,0x10
8000272c:	01081613          	slli	a2,a6,0x10
80002730:	8241                	srli	a2,a2,0x10
80002732:	01035713          	srli	a4,t1,0x10
80002736:	0317f6b3          	remu	a3,a5,a7
8000273a:	0317d7b3          	divu	a5,a5,a7
8000273e:	06c2                	slli	a3,a3,0x10
80002740:	8f55                	or	a4,a4,a3
80002742:	02f60e33          	mul	t3,a2,a5
80002746:	853e                	mv	a0,a5
80002748:	01c77c63          	bgeu	a4,t3,80002760 <__udivdi3+0x144>
8000274c:	9742                	add	a4,a4,a6
8000274e:	fff78513          	addi	a0,a5,-1
80002752:	01076763          	bltu	a4,a6,80002760 <__udivdi3+0x144>
80002756:	01c77563          	bgeu	a4,t3,80002760 <__udivdi3+0x144>
8000275a:	ffe78513          	addi	a0,a5,-2
8000275e:	9742                	add	a4,a4,a6
80002760:	41c70733          	sub	a4,a4,t3
80002764:	031777b3          	remu	a5,a4,a7
80002768:	0342                	slli	t1,t1,0x10
8000276a:	01035313          	srli	t1,t1,0x10
8000276e:	03175733          	divu	a4,a4,a7
80002772:	07c2                	slli	a5,a5,0x10
80002774:	0067e333          	or	t1,a5,t1
80002778:	02e606b3          	mul	a3,a2,a4
8000277c:	863a                	mv	a2,a4
8000277e:	00d37b63          	bgeu	t1,a3,80002794 <__udivdi3+0x178>
80002782:	9342                	add	t1,t1,a6
80002784:	fff70613          	addi	a2,a4,-1 # ffff <__stack_size+0xf7ff>
80002788:	01036663          	bltu	t1,a6,80002794 <__udivdi3+0x178>
8000278c:	00d37463          	bgeu	t1,a3,80002794 <__udivdi3+0x178>
80002790:	ffe70613          	addi	a2,a4,-2
80002794:	0542                	slli	a0,a0,0x10
80002796:	8d51                	or	a0,a0,a2
80002798:	8082                	ret
8000279a:	01000737          	lui	a4,0x1000
8000279e:	4541                	li	a0,16
800027a0:	f6e865e3          	bltu	a6,a4,8000270a <__udivdi3+0xee>
800027a4:	4561                	li	a0,24
800027a6:	b795                	j	8000270a <__udivdi3+0xee>
800027a8:	00d81833          	sll	a6,a6,a3
800027ac:	00e7d5b3          	srl	a1,a5,a4
800027b0:	00d89333          	sll	t1,a7,a3
800027b4:	00d797b3          	sll	a5,a5,a3
800027b8:	00e8d733          	srl	a4,a7,a4
800027bc:	01085893          	srli	a7,a6,0x10
800027c0:	00f76633          	or	a2,a4,a5
800027c4:	0315f733          	remu	a4,a1,a7
800027c8:	01081793          	slli	a5,a6,0x10
800027cc:	83c1                	srli	a5,a5,0x10
800027ce:	01065513          	srli	a0,a2,0x10
800027d2:	0315d5b3          	divu	a1,a1,a7
800027d6:	0742                	slli	a4,a4,0x10
800027d8:	8f49                	or	a4,a4,a0
800027da:	02b786b3          	mul	a3,a5,a1
800027de:	852e                	mv	a0,a1
800027e0:	00d77c63          	bgeu	a4,a3,800027f8 <__udivdi3+0x1dc>
800027e4:	9742                	add	a4,a4,a6
800027e6:	fff58513          	addi	a0,a1,-1 # 2ffff <__stack_size+0x2f7ff>
800027ea:	01076763          	bltu	a4,a6,800027f8 <__udivdi3+0x1dc>
800027ee:	00d77563          	bgeu	a4,a3,800027f8 <__udivdi3+0x1dc>
800027f2:	ffe58513          	addi	a0,a1,-2
800027f6:	9742                	add	a4,a4,a6
800027f8:	40d706b3          	sub	a3,a4,a3
800027fc:	0316f733          	remu	a4,a3,a7
80002800:	0642                	slli	a2,a2,0x10
80002802:	8241                	srli	a2,a2,0x10
80002804:	0316d6b3          	divu	a3,a3,a7
80002808:	0742                	slli	a4,a4,0x10
8000280a:	02d788b3          	mul	a7,a5,a3
8000280e:	00c767b3          	or	a5,a4,a2
80002812:	8736                	mv	a4,a3
80002814:	0117fc63          	bgeu	a5,a7,8000282c <__udivdi3+0x210>
80002818:	97c2                	add	a5,a5,a6
8000281a:	fff68713          	addi	a4,a3,-1
8000281e:	0107e763          	bltu	a5,a6,8000282c <__udivdi3+0x210>
80002822:	0117f563          	bgeu	a5,a7,8000282c <__udivdi3+0x210>
80002826:	ffe68713          	addi	a4,a3,-2
8000282a:	97c2                	add	a5,a5,a6
8000282c:	01051593          	slli	a1,a0,0x10
80002830:	411787b3          	sub	a5,a5,a7
80002834:	8dd9                	or	a1,a1,a4
80002836:	bdcd                	j	80002728 <__udivdi3+0x10c>
80002838:	14d5e163          	bltu	a1,a3,8000297a <__udivdi3+0x35e>
8000283c:	6741                	lui	a4,0x10
8000283e:	02e6ff63          	bgeu	a3,a4,8000287c <__udivdi3+0x260>
80002842:	0ff00713          	li	a4,255
80002846:	00d735b3          	sltu	a1,a4,a3
8000284a:	058e                	slli	a1,a1,0x3
8000284c:	00b6d533          	srl	a0,a3,a1
80002850:	00002717          	auipc	a4,0x2
80002854:	8e070713          	addi	a4,a4,-1824 # 80004130 <__clz_tab>
80002858:	972a                	add	a4,a4,a0
8000285a:	00074703          	lbu	a4,0(a4)
8000285e:	02000513          	li	a0,32
80002862:	972e                	add	a4,a4,a1
80002864:	40e505b3          	sub	a1,a0,a4
80002868:	02e51163          	bne	a0,a4,8000288a <__udivdi3+0x26e>
8000286c:	4505                	li	a0,1
8000286e:	f2f6e5e3          	bltu	a3,a5,80002798 <__udivdi3+0x17c>
80002872:	00c8b533          	sltu	a0,a7,a2
80002876:	00154513          	xori	a0,a0,1
8000287a:	bf39                	j	80002798 <__udivdi3+0x17c>
8000287c:	01000737          	lui	a4,0x1000
80002880:	45c1                	li	a1,16
80002882:	fce6e5e3          	bltu	a3,a4,8000284c <__udivdi3+0x230>
80002886:	45e1                	li	a1,24
80002888:	b7d1                	j	8000284c <__udivdi3+0x230>
8000288a:	00e65333          	srl	t1,a2,a4
8000288e:	00b696b3          	sll	a3,a3,a1
80002892:	00d36333          	or	t1,t1,a3
80002896:	00e7d533          	srl	a0,a5,a4
8000289a:	01035e93          	srli	t4,t1,0x10
8000289e:	03d576b3          	remu	a3,a0,t4
800028a2:	00b797b3          	sll	a5,a5,a1
800028a6:	00e8d733          	srl	a4,a7,a4
800028aa:	00f76833          	or	a6,a4,a5
800028ae:	01031793          	slli	a5,t1,0x10
800028b2:	83c1                	srli	a5,a5,0x10
800028b4:	01085713          	srli	a4,a6,0x10
800028b8:	00b61633          	sll	a2,a2,a1
800028bc:	03d55533          	divu	a0,a0,t4
800028c0:	06c2                	slli	a3,a3,0x10
800028c2:	8f55                	or	a4,a4,a3
800028c4:	02a78f33          	mul	t5,a5,a0
800028c8:	8e2a                	mv	t3,a0
800028ca:	01e77c63          	bgeu	a4,t5,800028e2 <__udivdi3+0x2c6>
800028ce:	971a                	add	a4,a4,t1
800028d0:	fff50e13          	addi	t3,a0,-1 # ffffff <__stack_size+0xfff7ff>
800028d4:	00676763          	bltu	a4,t1,800028e2 <__udivdi3+0x2c6>
800028d8:	01e77563          	bgeu	a4,t5,800028e2 <__udivdi3+0x2c6>
800028dc:	ffe50e13          	addi	t3,a0,-2
800028e0:	971a                	add	a4,a4,t1
800028e2:	41e70733          	sub	a4,a4,t5
800028e6:	03d776b3          	remu	a3,a4,t4
800028ea:	03d75733          	divu	a4,a4,t4
800028ee:	06c2                	slli	a3,a3,0x10
800028f0:	02e78eb3          	mul	t4,a5,a4
800028f4:	01081793          	slli	a5,a6,0x10
800028f8:	83c1                	srli	a5,a5,0x10
800028fa:	8fd5                	or	a5,a5,a3
800028fc:	853a                	mv	a0,a4
800028fe:	01d7fc63          	bgeu	a5,t4,80002916 <__udivdi3+0x2fa>
80002902:	979a                	add	a5,a5,t1
80002904:	fff70513          	addi	a0,a4,-1 # ffffff <__stack_size+0xfff7ff>
80002908:	0067e763          	bltu	a5,t1,80002916 <__udivdi3+0x2fa>
8000290c:	01d7f563          	bgeu	a5,t4,80002916 <__udivdi3+0x2fa>
80002910:	ffe70513          	addi	a0,a4,-2
80002914:	979a                	add	a5,a5,t1
80002916:	0e42                	slli	t3,t3,0x10
80002918:	41d787b3          	sub	a5,a5,t4
8000291c:	6ec1                	lui	t4,0x10
8000291e:	00ae6533          	or	a0,t3,a0
80002922:	fffe8693          	addi	a3,t4,-1 # ffff <__stack_size+0xf7ff>
80002926:	00d57333          	and	t1,a0,a3
8000292a:	01055813          	srli	a6,a0,0x10
8000292e:	8ef1                	and	a3,a3,a2
80002930:	8241                	srli	a2,a2,0x10
80002932:	02d30e33          	mul	t3,t1,a3
80002936:	02d806b3          	mul	a3,a6,a3
8000293a:	010e5713          	srli	a4,t3,0x10
8000293e:	02c30333          	mul	t1,t1,a2
80002942:	9336                	add	t1,t1,a3
80002944:	971a                	add	a4,a4,t1
80002946:	02c80833          	mul	a6,a6,a2
8000294a:	00d77363          	bgeu	a4,a3,80002950 <__udivdi3+0x334>
8000294e:	9876                	add	a6,a6,t4
80002950:	01075693          	srli	a3,a4,0x10
80002954:	9836                	add	a6,a6,a3
80002956:	0307e063          	bltu	a5,a6,80002976 <__udivdi3+0x35a>
8000295a:	d90793e3          	bne	a5,a6,800026e0 <__udivdi3+0xc4>
8000295e:	67c1                	lui	a5,0x10
80002960:	17fd                	addi	a5,a5,-1
80002962:	8f7d                	and	a4,a4,a5
80002964:	0742                	slli	a4,a4,0x10
80002966:	00fe7e33          	and	t3,t3,a5
8000296a:	00b898b3          	sll	a7,a7,a1
8000296e:	9772                	add	a4,a4,t3
80002970:	4581                	li	a1,0
80002972:	e2e8f3e3          	bgeu	a7,a4,80002798 <__udivdi3+0x17c>
80002976:	157d                	addi	a0,a0,-1
80002978:	b3a5                	j	800026e0 <__udivdi3+0xc4>
8000297a:	4581                	li	a1,0
8000297c:	4501                	li	a0,0
8000297e:	bd29                	j	80002798 <__udivdi3+0x17c>

80002980 <atexit>:
80002980:	85aa                	mv	a1,a0
80002982:	4681                	li	a3,0
80002984:	4601                	li	a2,0
80002986:	4501                	li	a0,0
80002988:	a925                	j	80002dc0 <__register_exitproc>

8000298a <__libc_fini_array>:
8000298a:	1141                	addi	sp,sp,-16
8000298c:	00002797          	auipc	a5,0x2
80002990:	99878793          	addi	a5,a5,-1640 # 80004324 <__fsymtab_end>
80002994:	c422                	sw	s0,8(sp)
80002996:	00002417          	auipc	s0,0x2
8000299a:	98e40413          	addi	s0,s0,-1650 # 80004324 <__fsymtab_end>
8000299e:	8c1d                	sub	s0,s0,a5
800029a0:	c226                	sw	s1,4(sp)
800029a2:	c606                	sw	ra,12(sp)
800029a4:	8409                	srai	s0,s0,0x2
800029a6:	84be                	mv	s1,a5
800029a8:	e419                	bnez	s0,800029b6 <__libc_fini_array+0x2c>
800029aa:	4422                	lw	s0,8(sp)
800029ac:	40b2                	lw	ra,12(sp)
800029ae:	4492                	lw	s1,4(sp)
800029b0:	0141                	addi	sp,sp,16
800029b2:	900fe06f          	j	80000ab2 <_fini>
800029b6:	147d                	addi	s0,s0,-1
800029b8:	00241793          	slli	a5,s0,0x2
800029bc:	97a6                	add	a5,a5,s1
800029be:	439c                	lw	a5,0(a5)
800029c0:	9782                	jalr	a5
800029c2:	b7dd                	j	800029a8 <__libc_fini_array+0x1e>

800029c4 <__libc_init_array>:
800029c4:	1141                	addi	sp,sp,-16
800029c6:	00002797          	auipc	a5,0x2
800029ca:	95e78793          	addi	a5,a5,-1698 # 80004324 <__fsymtab_end>
800029ce:	c422                	sw	s0,8(sp)
800029d0:	00002417          	auipc	s0,0x2
800029d4:	95440413          	addi	s0,s0,-1708 # 80004324 <__fsymtab_end>
800029d8:	8c1d                	sub	s0,s0,a5
800029da:	c226                	sw	s1,4(sp)
800029dc:	c04a                	sw	s2,0(sp)
800029de:	c606                	sw	ra,12(sp)
800029e0:	8409                	srai	s0,s0,0x2
800029e2:	4481                	li	s1,0
800029e4:	893e                	mv	s2,a5
800029e6:	02849863          	bne	s1,s0,80002a16 <__libc_init_array+0x52>
800029ea:	8bafe0ef          	jal	ra,80000aa4 <_init>
800029ee:	00002797          	auipc	a5,0x2
800029f2:	93678793          	addi	a5,a5,-1738 # 80004324 <__fsymtab_end>
800029f6:	00002417          	auipc	s0,0x2
800029fa:	92e40413          	addi	s0,s0,-1746 # 80004324 <__fsymtab_end>
800029fe:	8c1d                	sub	s0,s0,a5
80002a00:	8409                	srai	s0,s0,0x2
80002a02:	4481                	li	s1,0
80002a04:	893e                	mv	s2,a5
80002a06:	00849f63          	bne	s1,s0,80002a24 <__libc_init_array+0x60>
80002a0a:	40b2                	lw	ra,12(sp)
80002a0c:	4422                	lw	s0,8(sp)
80002a0e:	4492                	lw	s1,4(sp)
80002a10:	4902                	lw	s2,0(sp)
80002a12:	0141                	addi	sp,sp,16
80002a14:	8082                	ret
80002a16:	00249793          	slli	a5,s1,0x2
80002a1a:	97ca                	add	a5,a5,s2
80002a1c:	439c                	lw	a5,0(a5)
80002a1e:	0485                	addi	s1,s1,1
80002a20:	9782                	jalr	a5
80002a22:	b7d1                	j	800029e6 <__libc_init_array+0x22>
80002a24:	00249793          	slli	a5,s1,0x2
80002a28:	97ca                	add	a5,a5,s2
80002a2a:	439c                	lw	a5,0(a5)
80002a2c:	0485                	addi	s1,s1,1
80002a2e:	9782                	jalr	a5
80002a30:	bfd9                	j	80002a06 <__libc_init_array+0x42>

80002a32 <iprintf>:
80002a32:	715d                	addi	sp,sp,-80
80002a34:	d422                	sw	s0,40(sp)
80002a36:	d606                	sw	ra,44(sp)
80002a38:	842a                	mv	s0,a0
80002a3a:	da2e                	sw	a1,52(sp)
80002a3c:	dc32                	sw	a2,56(sp)
80002a3e:	de36                	sw	a3,60(sp)
80002a40:	c0ba                	sw	a4,64(sp)
80002a42:	c2be                	sw	a5,68(sp)
80002a44:	c4c2                	sw	a6,72(sp)
80002a46:	c6c6                	sw	a7,76(sp)
80002a48:	8081a503          	lw	a0,-2040(gp) # 90000068 <_impure_ptr>
80002a4c:	c511                	beqz	a0,80002a58 <iprintf+0x26>
80002a4e:	4d1c                	lw	a5,24(a0)
80002a50:	e781                	bnez	a5,80002a58 <iprintf+0x26>
80002a52:	c62a                	sw	a0,12(sp)
80002a54:	25a1                	jal	8000309c <__sinit>
80002a56:	4532                	lw	a0,12(sp)
80002a58:	450c                	lw	a1,8(a0)
80002a5a:	1854                	addi	a3,sp,52
80002a5c:	8622                	mv	a2,s0
80002a5e:	ce36                	sw	a3,28(sp)
80002a60:	323000ef          	jal	ra,80003582 <_vfiprintf_r>
80002a64:	50b2                	lw	ra,44(sp)
80002a66:	5422                	lw	s0,40(sp)
80002a68:	6161                	addi	sp,sp,80
80002a6a:	8082                	ret

80002a6c <putchar>:
80002a6c:	85aa                	mv	a1,a0
80002a6e:	8081a503          	lw	a0,-2040(gp) # 90000068 <_impure_ptr>
80002a72:	cd11                	beqz	a0,80002a8e <putchar+0x22>
80002a74:	4d1c                	lw	a5,24(a0)
80002a76:	ef81                	bnez	a5,80002a8e <putchar+0x22>
80002a78:	1101                	addi	sp,sp,-32
80002a7a:	ce06                	sw	ra,28(sp)
80002a7c:	c62e                	sw	a1,12(sp)
80002a7e:	c42a                	sw	a0,8(sp)
80002a80:	2d31                	jal	8000309c <__sinit>
80002a82:	4522                	lw	a0,8(sp)
80002a84:	45b2                	lw	a1,12(sp)
80002a86:	40f2                	lw	ra,28(sp)
80002a88:	4510                	lw	a2,8(a0)
80002a8a:	6105                	addi	sp,sp,32
80002a8c:	a019                	j	80002a92 <_putc_r>
80002a8e:	4510                	lw	a2,8(a0)
80002a90:	bff5                	j	80002a8c <putchar+0x20>

80002a92 <_putc_r>:
80002a92:	1101                	addi	sp,sp,-32
80002a94:	cc22                	sw	s0,24(sp)
80002a96:	ce06                	sw	ra,28(sp)
80002a98:	842a                	mv	s0,a0
80002a9a:	c901                	beqz	a0,80002aaa <_putc_r+0x18>
80002a9c:	4d1c                	lw	a5,24(a0)
80002a9e:	e791                	bnez	a5,80002aaa <_putc_r+0x18>
80002aa0:	c632                	sw	a2,12(sp)
80002aa2:	c42e                	sw	a1,8(sp)
80002aa4:	2be5                	jal	8000309c <__sinit>
80002aa6:	4632                	lw	a2,12(sp)
80002aa8:	45a2                	lw	a1,8(sp)
80002aaa:	00001797          	auipc	a5,0x1
80002aae:	7a678793          	addi	a5,a5,1958 # 80004250 <__sf_fake_stdin>
80002ab2:	02f61c63          	bne	a2,a5,80002aea <_putc_r+0x58>
80002ab6:	4050                	lw	a2,4(s0)
80002ab8:	461c                	lw	a5,8(a2)
80002aba:	17fd                	addi	a5,a5,-1
80002abc:	c61c                	sw	a5,8(a2)
80002abe:	0007da63          	bgez	a5,80002ad2 <_putc_r+0x40>
80002ac2:	4e18                	lw	a4,24(a2)
80002ac4:	04e7c363          	blt	a5,a4,80002b0a <_putc_r+0x78>
80002ac8:	0ff5f793          	andi	a5,a1,255
80002acc:	4729                	li	a4,10
80002ace:	02e78e63          	beq	a5,a4,80002b0a <_putc_r+0x78>
80002ad2:	421c                	lw	a5,0(a2)
80002ad4:	0ff5f513          	andi	a0,a1,255
80002ad8:	00178713          	addi	a4,a5,1
80002adc:	c218                	sw	a4,0(a2)
80002ade:	00b78023          	sb	a1,0(a5)
80002ae2:	40f2                	lw	ra,28(sp)
80002ae4:	4462                	lw	s0,24(sp)
80002ae6:	6105                	addi	sp,sp,32
80002ae8:	8082                	ret
80002aea:	00001797          	auipc	a5,0x1
80002aee:	78678793          	addi	a5,a5,1926 # 80004270 <__sf_fake_stdout>
80002af2:	00f61463          	bne	a2,a5,80002afa <_putc_r+0x68>
80002af6:	4410                	lw	a2,8(s0)
80002af8:	b7c1                	j	80002ab8 <_putc_r+0x26>
80002afa:	00001797          	auipc	a5,0x1
80002afe:	73678793          	addi	a5,a5,1846 # 80004230 <__sf_fake_stderr>
80002b02:	faf61be3          	bne	a2,a5,80002ab8 <_putc_r+0x26>
80002b06:	4450                	lw	a2,12(s0)
80002b08:	bf45                	j	80002ab8 <_putc_r+0x26>
80002b0a:	8522                	mv	a0,s0
80002b0c:	4462                	lw	s0,24(sp)
80002b0e:	40f2                	lw	ra,28(sp)
80002b10:	6105                	addi	sp,sp,32
80002b12:	a0e5                	j	80002bfa <__swbuf_r>

80002b14 <_puts_r>:
80002b14:	1101                	addi	sp,sp,-32
80002b16:	ca26                	sw	s1,20(sp)
80002b18:	c84a                	sw	s2,16(sp)
80002b1a:	ce06                	sw	ra,28(sp)
80002b1c:	cc22                	sw	s0,24(sp)
80002b1e:	c64e                	sw	s3,12(sp)
80002b20:	c452                	sw	s4,8(sp)
80002b22:	84aa                	mv	s1,a0
80002b24:	892e                	mv	s2,a1
80002b26:	c501                	beqz	a0,80002b2e <_puts_r+0x1a>
80002b28:	4d1c                	lw	a5,24(a0)
80002b2a:	e391                	bnez	a5,80002b2e <_puts_r+0x1a>
80002b2c:	2b85                	jal	8000309c <__sinit>
80002b2e:	4c9c                	lw	a5,24(s1)
80002b30:	4480                	lw	s0,8(s1)
80002b32:	e399                	bnez	a5,80002b38 <_puts_r+0x24>
80002b34:	8526                	mv	a0,s1
80002b36:	239d                	jal	8000309c <__sinit>
80002b38:	00001797          	auipc	a5,0x1
80002b3c:	71878793          	addi	a5,a5,1816 # 80004250 <__sf_fake_stdin>
80002b40:	02f41c63          	bne	s0,a5,80002b78 <_puts_r+0x64>
80002b44:	40c0                	lw	s0,4(s1)
80002b46:	00c45783          	lhu	a5,12(s0)
80002b4a:	8ba1                	andi	a5,a5,8
80002b4c:	c7b1                	beqz	a5,80002b98 <_puts_r+0x84>
80002b4e:	481c                	lw	a5,16(s0)
80002b50:	c7a1                	beqz	a5,80002b98 <_puts_r+0x84>
80002b52:	59fd                	li	s3,-1
80002b54:	4a29                	li	s4,10
80002b56:	441c                	lw	a5,8(s0)
80002b58:	00094583          	lbu	a1,0(s2)
80002b5c:	17fd                	addi	a5,a5,-1
80002b5e:	e9b1                	bnez	a1,80002bb2 <_puts_r+0x9e>
80002b60:	c41c                	sw	a5,8(s0)
80002b62:	0607de63          	bgez	a5,80002bde <_puts_r+0xca>
80002b66:	8622                	mv	a2,s0
80002b68:	45a9                	li	a1,10
80002b6a:	8526                	mv	a0,s1
80002b6c:	2079                	jal	80002bfa <__swbuf_r>
80002b6e:	57fd                	li	a5,-1
80002b70:	02f50863          	beq	a0,a5,80002ba0 <_puts_r+0x8c>
80002b74:	4529                	li	a0,10
80002b76:	a035                	j	80002ba2 <_puts_r+0x8e>
80002b78:	00001797          	auipc	a5,0x1
80002b7c:	6f878793          	addi	a5,a5,1784 # 80004270 <__sf_fake_stdout>
80002b80:	00f41463          	bne	s0,a5,80002b88 <_puts_r+0x74>
80002b84:	4480                	lw	s0,8(s1)
80002b86:	b7c1                	j	80002b46 <_puts_r+0x32>
80002b88:	00001797          	auipc	a5,0x1
80002b8c:	6a878793          	addi	a5,a5,1704 # 80004230 <__sf_fake_stderr>
80002b90:	faf41be3          	bne	s0,a5,80002b46 <_puts_r+0x32>
80002b94:	44c0                	lw	s0,12(s1)
80002b96:	bf45                	j	80002b46 <_puts_r+0x32>
80002b98:	85a2                	mv	a1,s0
80002b9a:	8526                	mv	a0,s1
80002b9c:	2a39                	jal	80002cba <__swsetup_r>
80002b9e:	d955                	beqz	a0,80002b52 <_puts_r+0x3e>
80002ba0:	557d                	li	a0,-1
80002ba2:	40f2                	lw	ra,28(sp)
80002ba4:	4462                	lw	s0,24(sp)
80002ba6:	44d2                	lw	s1,20(sp)
80002ba8:	4942                	lw	s2,16(sp)
80002baa:	49b2                	lw	s3,12(sp)
80002bac:	4a22                	lw	s4,8(sp)
80002bae:	6105                	addi	sp,sp,32
80002bb0:	8082                	ret
80002bb2:	c41c                	sw	a5,8(s0)
80002bb4:	0905                	addi	s2,s2,1
80002bb6:	0007d763          	bgez	a5,80002bc4 <_puts_r+0xb0>
80002bba:	4c18                	lw	a4,24(s0)
80002bbc:	00e7cb63          	blt	a5,a4,80002bd2 <_puts_r+0xbe>
80002bc0:	01458963          	beq	a1,s4,80002bd2 <_puts_r+0xbe>
80002bc4:	401c                	lw	a5,0(s0)
80002bc6:	00178713          	addi	a4,a5,1
80002bca:	c018                	sw	a4,0(s0)
80002bcc:	00b78023          	sb	a1,0(a5)
80002bd0:	b759                	j	80002b56 <_puts_r+0x42>
80002bd2:	8622                	mv	a2,s0
80002bd4:	8526                	mv	a0,s1
80002bd6:	2015                	jal	80002bfa <__swbuf_r>
80002bd8:	f7351fe3          	bne	a0,s3,80002b56 <_puts_r+0x42>
80002bdc:	b7d1                	j	80002ba0 <_puts_r+0x8c>
80002bde:	401c                	lw	a5,0(s0)
80002be0:	00178713          	addi	a4,a5,1
80002be4:	c018                	sw	a4,0(s0)
80002be6:	4729                	li	a4,10
80002be8:	00e78023          	sb	a4,0(a5)
80002bec:	b761                	j	80002b74 <_puts_r+0x60>

80002bee <puts>:
80002bee:	85aa                	mv	a1,a0
80002bf0:	8081a503          	lw	a0,-2040(gp) # 90000068 <_impure_ptr>
80002bf4:	b705                	j	80002b14 <_puts_r>

80002bf6 <isatty>:
80002bf6:	d22fd06f          	j	80000118 <_isatty>

80002bfa <__swbuf_r>:
80002bfa:	1101                	addi	sp,sp,-32
80002bfc:	cc22                	sw	s0,24(sp)
80002bfe:	ca26                	sw	s1,20(sp)
80002c00:	c84a                	sw	s2,16(sp)
80002c02:	ce06                	sw	ra,28(sp)
80002c04:	c64e                	sw	s3,12(sp)
80002c06:	84aa                	mv	s1,a0
80002c08:	892e                	mv	s2,a1
80002c0a:	8432                	mv	s0,a2
80002c0c:	c501                	beqz	a0,80002c14 <__swbuf_r+0x1a>
80002c0e:	4d1c                	lw	a5,24(a0)
80002c10:	e391                	bnez	a5,80002c14 <__swbuf_r+0x1a>
80002c12:	2169                	jal	8000309c <__sinit>
80002c14:	00001797          	auipc	a5,0x1
80002c18:	63c78793          	addi	a5,a5,1596 # 80004250 <__sf_fake_stdin>
80002c1c:	06f41963          	bne	s0,a5,80002c8e <__swbuf_r+0x94>
80002c20:	40c0                	lw	s0,4(s1)
80002c22:	4c1c                	lw	a5,24(s0)
80002c24:	c41c                	sw	a5,8(s0)
80002c26:	00c45783          	lhu	a5,12(s0)
80002c2a:	8ba1                	andi	a5,a5,8
80002c2c:	c3c9                	beqz	a5,80002cae <__swbuf_r+0xb4>
80002c2e:	481c                	lw	a5,16(s0)
80002c30:	cfbd                	beqz	a5,80002cae <__swbuf_r+0xb4>
80002c32:	481c                	lw	a5,16(s0)
80002c34:	4008                	lw	a0,0(s0)
80002c36:	0ff97993          	andi	s3,s2,255
80002c3a:	0ff97913          	andi	s2,s2,255
80002c3e:	8d1d                	sub	a0,a0,a5
80002c40:	485c                	lw	a5,20(s0)
80002c42:	00f54663          	blt	a0,a5,80002c4e <__swbuf_r+0x54>
80002c46:	85a2                	mv	a1,s0
80002c48:	8526                	mv	a0,s1
80002c4a:	2e25                	jal	80002f82 <_fflush_r>
80002c4c:	e52d                	bnez	a0,80002cb6 <__swbuf_r+0xbc>
80002c4e:	441c                	lw	a5,8(s0)
80002c50:	0505                	addi	a0,a0,1
80002c52:	17fd                	addi	a5,a5,-1
80002c54:	c41c                	sw	a5,8(s0)
80002c56:	401c                	lw	a5,0(s0)
80002c58:	00178713          	addi	a4,a5,1
80002c5c:	c018                	sw	a4,0(s0)
80002c5e:	01378023          	sb	s3,0(a5)
80002c62:	485c                	lw	a5,20(s0)
80002c64:	00a78963          	beq	a5,a0,80002c76 <__swbuf_r+0x7c>
80002c68:	00c45783          	lhu	a5,12(s0)
80002c6c:	8b85                	andi	a5,a5,1
80002c6e:	cb81                	beqz	a5,80002c7e <__swbuf_r+0x84>
80002c70:	47a9                	li	a5,10
80002c72:	00f91663          	bne	s2,a5,80002c7e <__swbuf_r+0x84>
80002c76:	85a2                	mv	a1,s0
80002c78:	8526                	mv	a0,s1
80002c7a:	2621                	jal	80002f82 <_fflush_r>
80002c7c:	ed0d                	bnez	a0,80002cb6 <__swbuf_r+0xbc>
80002c7e:	40f2                	lw	ra,28(sp)
80002c80:	4462                	lw	s0,24(sp)
80002c82:	44d2                	lw	s1,20(sp)
80002c84:	49b2                	lw	s3,12(sp)
80002c86:	854a                	mv	a0,s2
80002c88:	4942                	lw	s2,16(sp)
80002c8a:	6105                	addi	sp,sp,32
80002c8c:	8082                	ret
80002c8e:	00001797          	auipc	a5,0x1
80002c92:	5e278793          	addi	a5,a5,1506 # 80004270 <__sf_fake_stdout>
80002c96:	00f41463          	bne	s0,a5,80002c9e <__swbuf_r+0xa4>
80002c9a:	4480                	lw	s0,8(s1)
80002c9c:	b759                	j	80002c22 <__swbuf_r+0x28>
80002c9e:	00001797          	auipc	a5,0x1
80002ca2:	59278793          	addi	a5,a5,1426 # 80004230 <__sf_fake_stderr>
80002ca6:	f6f41ee3          	bne	s0,a5,80002c22 <__swbuf_r+0x28>
80002caa:	44c0                	lw	s0,12(s1)
80002cac:	bf9d                	j	80002c22 <__swbuf_r+0x28>
80002cae:	85a2                	mv	a1,s0
80002cb0:	8526                	mv	a0,s1
80002cb2:	2021                	jal	80002cba <__swsetup_r>
80002cb4:	dd3d                	beqz	a0,80002c32 <__swbuf_r+0x38>
80002cb6:	597d                	li	s2,-1
80002cb8:	b7d9                	j	80002c7e <__swbuf_r+0x84>

80002cba <__swsetup_r>:
80002cba:	1141                	addi	sp,sp,-16
80002cbc:	c422                	sw	s0,8(sp)
80002cbe:	c226                	sw	s1,4(sp)
80002cc0:	c04a                	sw	s2,0(sp)
80002cc2:	c606                	sw	ra,12(sp)
80002cc4:	8081a483          	lw	s1,-2040(gp) # 90000068 <_impure_ptr>
80002cc8:	892a                	mv	s2,a0
80002cca:	842e                	mv	s0,a1
80002ccc:	c489                	beqz	s1,80002cd6 <__swsetup_r+0x1c>
80002cce:	4c9c                	lw	a5,24(s1)
80002cd0:	e399                	bnez	a5,80002cd6 <__swsetup_r+0x1c>
80002cd2:	8526                	mv	a0,s1
80002cd4:	26e1                	jal	8000309c <__sinit>
80002cd6:	00001797          	auipc	a5,0x1
80002cda:	57a78793          	addi	a5,a5,1402 # 80004250 <__sf_fake_stdin>
80002cde:	02f41763          	bne	s0,a5,80002d0c <__swsetup_r+0x52>
80002ce2:	40c0                	lw	s0,4(s1)
80002ce4:	00c41783          	lh	a5,12(s0)
80002ce8:	01079713          	slli	a4,a5,0x10
80002cec:	0087f693          	andi	a3,a5,8
80002cf0:	8341                	srli	a4,a4,0x10
80002cf2:	eaad                	bnez	a3,80002d64 <__swsetup_r+0xaa>
80002cf4:	01077693          	andi	a3,a4,16
80002cf8:	ea95                	bnez	a3,80002d2c <__swsetup_r+0x72>
80002cfa:	4725                	li	a4,9
80002cfc:	00e92023          	sw	a4,0(s2)
80002d00:	0407e793          	ori	a5,a5,64
80002d04:	00f41623          	sh	a5,12(s0)
80002d08:	557d                	li	a0,-1
80002d0a:	a871                	j	80002da6 <__swsetup_r+0xec>
80002d0c:	00001797          	auipc	a5,0x1
80002d10:	56478793          	addi	a5,a5,1380 # 80004270 <__sf_fake_stdout>
80002d14:	00f41463          	bne	s0,a5,80002d1c <__swsetup_r+0x62>
80002d18:	4480                	lw	s0,8(s1)
80002d1a:	b7e9                	j	80002ce4 <__swsetup_r+0x2a>
80002d1c:	00001797          	auipc	a5,0x1
80002d20:	51478793          	addi	a5,a5,1300 # 80004230 <__sf_fake_stderr>
80002d24:	fcf410e3          	bne	s0,a5,80002ce4 <__swsetup_r+0x2a>
80002d28:	44c0                	lw	s0,12(s1)
80002d2a:	bf6d                	j	80002ce4 <__swsetup_r+0x2a>
80002d2c:	8b11                	andi	a4,a4,4
80002d2e:	c70d                	beqz	a4,80002d58 <__swsetup_r+0x9e>
80002d30:	584c                	lw	a1,52(s0)
80002d32:	c989                	beqz	a1,80002d44 <__swsetup_r+0x8a>
80002d34:	04440793          	addi	a5,s0,68
80002d38:	00f58463          	beq	a1,a5,80002d40 <__swsetup_r+0x86>
80002d3c:	854a                	mv	a0,s2
80002d3e:	2595                	jal	800033a2 <_free_r>
80002d40:	02042a23          	sw	zero,52(s0)
80002d44:	00c45783          	lhu	a5,12(s0)
80002d48:	00042223          	sw	zero,4(s0)
80002d4c:	fdb7f793          	andi	a5,a5,-37
80002d50:	00f41623          	sh	a5,12(s0)
80002d54:	481c                	lw	a5,16(s0)
80002d56:	c01c                	sw	a5,0(s0)
80002d58:	00c45783          	lhu	a5,12(s0)
80002d5c:	0087e793          	ori	a5,a5,8
80002d60:	00f41623          	sh	a5,12(s0)
80002d64:	481c                	lw	a5,16(s0)
80002d66:	ef81                	bnez	a5,80002d7e <__swsetup_r+0xc4>
80002d68:	00c45783          	lhu	a5,12(s0)
80002d6c:	20000713          	li	a4,512
80002d70:	2807f793          	andi	a5,a5,640
80002d74:	00e78563          	beq	a5,a4,80002d7e <__swsetup_r+0xc4>
80002d78:	85a2                	mv	a1,s0
80002d7a:	854a                	mv	a0,s2
80002d7c:	21cd                	jal	8000325e <__smakebuf_r>
80002d7e:	00c41783          	lh	a5,12(s0)
80002d82:	01079713          	slli	a4,a5,0x10
80002d86:	0017f693          	andi	a3,a5,1
80002d8a:	8341                	srli	a4,a4,0x10
80002d8c:	c29d                	beqz	a3,80002db2 <__swsetup_r+0xf8>
80002d8e:	4854                	lw	a3,20(s0)
80002d90:	00042423          	sw	zero,8(s0)
80002d94:	40d006b3          	neg	a3,a3
80002d98:	cc14                	sw	a3,24(s0)
80002d9a:	4814                	lw	a3,16(s0)
80002d9c:	4501                	li	a0,0
80002d9e:	e681                	bnez	a3,80002da6 <__swsetup_r+0xec>
80002da0:	08077713          	andi	a4,a4,128
80002da4:	ff31                	bnez	a4,80002d00 <__swsetup_r+0x46>
80002da6:	40b2                	lw	ra,12(sp)
80002da8:	4422                	lw	s0,8(sp)
80002daa:	4492                	lw	s1,4(sp)
80002dac:	4902                	lw	s2,0(sp)
80002dae:	0141                	addi	sp,sp,16
80002db0:	8082                	ret
80002db2:	00277693          	andi	a3,a4,2
80002db6:	4601                	li	a2,0
80002db8:	e291                	bnez	a3,80002dbc <__swsetup_r+0x102>
80002dba:	4850                	lw	a2,20(s0)
80002dbc:	c410                	sw	a2,8(s0)
80002dbe:	bff1                	j	80002d9a <__swsetup_r+0xe0>

80002dc0 <__register_exitproc>:
80002dc0:	88aa                	mv	a7,a0
80002dc2:	84018513          	addi	a0,gp,-1984 # 900000a0 <_global_atexit>
80002dc6:	411c                	lw	a5,0(a0)
80002dc8:	ef91                	bnez	a5,80002de4 <__register_exitproc+0x24>
80002dca:	98418713          	addi	a4,gp,-1660 # 900001e4 <_global_atexit0>
80002dce:	c118                	sw	a4,0(a0)
80002dd0:	7fffd517          	auipc	a0,0x7fffd
80002dd4:	23050513          	addi	a0,a0,560 # 0 <_sp+0x6fff0000>
80002dd8:	87ba                	mv	a5,a4
80002dda:	c509                	beqz	a0,80002de4 <__register_exitproc+0x24>
80002ddc:	411c                	lw	a5,0(a0)
80002dde:	08f72423          	sw	a5,136(a4)
80002de2:	87ba                	mv	a5,a4
80002de4:	43d8                	lw	a4,4(a5)
80002de6:	487d                	li	a6,31
80002de8:	557d                	li	a0,-1
80002dea:	04e84663          	blt	a6,a4,80002e36 <__register_exitproc+0x76>
80002dee:	02088d63          	beqz	a7,80002e28 <__register_exitproc+0x68>
80002df2:	0887a803          	lw	a6,136(a5)
80002df6:	04080063          	beqz	a6,80002e36 <__register_exitproc+0x76>
80002dfa:	00271513          	slli	a0,a4,0x2
80002dfe:	9542                	add	a0,a0,a6
80002e00:	c110                	sw	a2,0(a0)
80002e02:	10082303          	lw	t1,256(a6)
80002e06:	4605                	li	a2,1
80002e08:	00e61633          	sll	a2,a2,a4
80002e0c:	00c36333          	or	t1,t1,a2
80002e10:	10682023          	sw	t1,256(a6)
80002e14:	08d52023          	sw	a3,128(a0)
80002e18:	4689                	li	a3,2
80002e1a:	00d89763          	bne	a7,a3,80002e28 <__register_exitproc+0x68>
80002e1e:	10482683          	lw	a3,260(a6)
80002e22:	8e55                	or	a2,a2,a3
80002e24:	10c82223          	sw	a2,260(a6)
80002e28:	00170693          	addi	a3,a4,1
80002e2c:	070a                	slli	a4,a4,0x2
80002e2e:	c3d4                	sw	a3,4(a5)
80002e30:	97ba                	add	a5,a5,a4
80002e32:	c78c                	sw	a1,8(a5)
80002e34:	4501                	li	a0,0
80002e36:	8082                	ret

80002e38 <__sflush_r>:
80002e38:	00c5d783          	lhu	a5,12(a1)
80002e3c:	1101                	addi	sp,sp,-32
80002e3e:	cc22                	sw	s0,24(sp)
80002e40:	ca26                	sw	s1,20(sp)
80002e42:	ce06                	sw	ra,28(sp)
80002e44:	c84a                	sw	s2,16(sp)
80002e46:	c64e                	sw	s3,12(sp)
80002e48:	0087f713          	andi	a4,a5,8
80002e4c:	84aa                	mv	s1,a0
80002e4e:	842e                	mv	s0,a1
80002e50:	e765                	bnez	a4,80002f38 <__sflush_r+0x100>
80002e52:	41d8                	lw	a4,4(a1)
80002e54:	00e04763          	bgtz	a4,80002e62 <__sflush_r+0x2a>
80002e58:	41b8                	lw	a4,64(a1)
80002e5a:	00e04463          	bgtz	a4,80002e62 <__sflush_r+0x2a>
80002e5e:	4501                	li	a0,0
80002e60:	a0c1                	j	80002f20 <__sflush_r+0xe8>
80002e62:	5458                	lw	a4,44(s0)
80002e64:	df6d                	beqz	a4,80002e5e <__sflush_r+0x26>
80002e66:	0004a903          	lw	s2,0(s1)
80002e6a:	01379693          	slli	a3,a5,0x13
80002e6e:	0004a023          	sw	zero,0(s1)
80002e72:	0606de63          	bgez	a3,80002eee <__sflush_r+0xb6>
80002e76:	4868                	lw	a0,84(s0)
80002e78:	00c45783          	lhu	a5,12(s0)
80002e7c:	8b91                	andi	a5,a5,4
80002e7e:	c799                	beqz	a5,80002e8c <__sflush_r+0x54>
80002e80:	405c                	lw	a5,4(s0)
80002e82:	8d1d                	sub	a0,a0,a5
80002e84:	585c                	lw	a5,52(s0)
80002e86:	c399                	beqz	a5,80002e8c <__sflush_r+0x54>
80002e88:	403c                	lw	a5,64(s0)
80002e8a:	8d1d                	sub	a0,a0,a5
80002e8c:	545c                	lw	a5,44(s0)
80002e8e:	500c                	lw	a1,32(s0)
80002e90:	862a                	mv	a2,a0
80002e92:	4681                	li	a3,0
80002e94:	8526                	mv	a0,s1
80002e96:	9782                	jalr	a5
80002e98:	57fd                	li	a5,-1
80002e9a:	00c45703          	lhu	a4,12(s0)
80002e9e:	00f51d63          	bne	a0,a5,80002eb8 <__sflush_r+0x80>
80002ea2:	4094                	lw	a3,0(s1)
80002ea4:	47f5                	li	a5,29
80002ea6:	08d7e463          	bltu	a5,a3,80002f2e <__sflush_r+0xf6>
80002eaa:	204007b7          	lui	a5,0x20400
80002eae:	0785                	addi	a5,a5,1
80002eb0:	00d7d7b3          	srl	a5,a5,a3
80002eb4:	8b85                	andi	a5,a5,1
80002eb6:	cfa5                	beqz	a5,80002f2e <__sflush_r+0xf6>
80002eb8:	481c                	lw	a5,16(s0)
80002eba:	00042223          	sw	zero,4(s0)
80002ebe:	c01c                	sw	a5,0(s0)
80002ec0:	01371793          	slli	a5,a4,0x13
80002ec4:	0007d863          	bgez	a5,80002ed4 <__sflush_r+0x9c>
80002ec8:	57fd                	li	a5,-1
80002eca:	00f51463          	bne	a0,a5,80002ed2 <__sflush_r+0x9a>
80002ece:	409c                	lw	a5,0(s1)
80002ed0:	e391                	bnez	a5,80002ed4 <__sflush_r+0x9c>
80002ed2:	c868                	sw	a0,84(s0)
80002ed4:	584c                	lw	a1,52(s0)
80002ed6:	0124a023          	sw	s2,0(s1)
80002eda:	d1d1                	beqz	a1,80002e5e <__sflush_r+0x26>
80002edc:	04440793          	addi	a5,s0,68
80002ee0:	00f58463          	beq	a1,a5,80002ee8 <__sflush_r+0xb0>
80002ee4:	8526                	mv	a0,s1
80002ee6:	2975                	jal	800033a2 <_free_r>
80002ee8:	02042a23          	sw	zero,52(s0)
80002eec:	bf8d                	j	80002e5e <__sflush_r+0x26>
80002eee:	500c                	lw	a1,32(s0)
80002ef0:	4685                	li	a3,1
80002ef2:	4601                	li	a2,0
80002ef4:	8526                	mv	a0,s1
80002ef6:	9702                	jalr	a4
80002ef8:	57fd                	li	a5,-1
80002efa:	f6f51fe3          	bne	a0,a5,80002e78 <__sflush_r+0x40>
80002efe:	409c                	lw	a5,0(s1)
80002f00:	dfa5                	beqz	a5,80002e78 <__sflush_r+0x40>
80002f02:	4775                	li	a4,29
80002f04:	00e78563          	beq	a5,a4,80002f0e <__sflush_r+0xd6>
80002f08:	4759                	li	a4,22
80002f0a:	00e79563          	bne	a5,a4,80002f14 <__sflush_r+0xdc>
80002f0e:	0124a023          	sw	s2,0(s1)
80002f12:	b7b1                	j	80002e5e <__sflush_r+0x26>
80002f14:	00c45783          	lhu	a5,12(s0)
80002f18:	0407e793          	ori	a5,a5,64
80002f1c:	00f41623          	sh	a5,12(s0)
80002f20:	40f2                	lw	ra,28(sp)
80002f22:	4462                	lw	s0,24(sp)
80002f24:	44d2                	lw	s1,20(sp)
80002f26:	4942                	lw	s2,16(sp)
80002f28:	49b2                	lw	s3,12(sp)
80002f2a:	6105                	addi	sp,sp,32
80002f2c:	8082                	ret
80002f2e:	04076713          	ori	a4,a4,64
80002f32:	00e41623          	sh	a4,12(s0)
80002f36:	b7ed                	j	80002f20 <__sflush_r+0xe8>
80002f38:	0105a983          	lw	s3,16(a1)
80002f3c:	f20981e3          	beqz	s3,80002e5e <__sflush_r+0x26>
80002f40:	0005a903          	lw	s2,0(a1)
80002f44:	8b8d                	andi	a5,a5,3
80002f46:	0135a023          	sw	s3,0(a1)
80002f4a:	41390933          	sub	s2,s2,s3
80002f4e:	4701                	li	a4,0
80002f50:	e391                	bnez	a5,80002f54 <__sflush_r+0x11c>
80002f52:	49d8                	lw	a4,20(a1)
80002f54:	c418                	sw	a4,8(s0)
80002f56:	f12054e3          	blez	s2,80002e5e <__sflush_r+0x26>
80002f5a:	541c                	lw	a5,40(s0)
80002f5c:	500c                	lw	a1,32(s0)
80002f5e:	86ca                	mv	a3,s2
80002f60:	864e                	mv	a2,s3
80002f62:	8526                	mv	a0,s1
80002f64:	9782                	jalr	a5
80002f66:	00a04a63          	bgtz	a0,80002f7a <__sflush_r+0x142>
80002f6a:	00c45783          	lhu	a5,12(s0)
80002f6e:	557d                	li	a0,-1
80002f70:	0407e793          	ori	a5,a5,64
80002f74:	00f41623          	sh	a5,12(s0)
80002f78:	b765                	j	80002f20 <__sflush_r+0xe8>
80002f7a:	99aa                	add	s3,s3,a0
80002f7c:	40a90933          	sub	s2,s2,a0
80002f80:	bfd9                	j	80002f56 <__sflush_r+0x11e>

80002f82 <_fflush_r>:
80002f82:	499c                	lw	a5,16(a1)
80002f84:	cfb9                	beqz	a5,80002fe2 <_fflush_r+0x60>
80002f86:	1101                	addi	sp,sp,-32
80002f88:	cc22                	sw	s0,24(sp)
80002f8a:	ce06                	sw	ra,28(sp)
80002f8c:	842a                	mv	s0,a0
80002f8e:	c511                	beqz	a0,80002f9a <_fflush_r+0x18>
80002f90:	4d1c                	lw	a5,24(a0)
80002f92:	e781                	bnez	a5,80002f9a <_fflush_r+0x18>
80002f94:	c62e                	sw	a1,12(sp)
80002f96:	2219                	jal	8000309c <__sinit>
80002f98:	45b2                	lw	a1,12(sp)
80002f9a:	00001797          	auipc	a5,0x1
80002f9e:	2b678793          	addi	a5,a5,694 # 80004250 <__sf_fake_stdin>
80002fa2:	00f59b63          	bne	a1,a5,80002fb8 <_fflush_r+0x36>
80002fa6:	404c                	lw	a1,4(s0)
80002fa8:	00c59783          	lh	a5,12(a1)
80002fac:	c795                	beqz	a5,80002fd8 <_fflush_r+0x56>
80002fae:	8522                	mv	a0,s0
80002fb0:	4462                	lw	s0,24(sp)
80002fb2:	40f2                	lw	ra,28(sp)
80002fb4:	6105                	addi	sp,sp,32
80002fb6:	b549                	j	80002e38 <__sflush_r>
80002fb8:	00001797          	auipc	a5,0x1
80002fbc:	2b878793          	addi	a5,a5,696 # 80004270 <__sf_fake_stdout>
80002fc0:	00f59463          	bne	a1,a5,80002fc8 <_fflush_r+0x46>
80002fc4:	440c                	lw	a1,8(s0)
80002fc6:	b7cd                	j	80002fa8 <_fflush_r+0x26>
80002fc8:	00001797          	auipc	a5,0x1
80002fcc:	26878793          	addi	a5,a5,616 # 80004230 <__sf_fake_stderr>
80002fd0:	fcf59ce3          	bne	a1,a5,80002fa8 <_fflush_r+0x26>
80002fd4:	444c                	lw	a1,12(s0)
80002fd6:	bfc9                	j	80002fa8 <_fflush_r+0x26>
80002fd8:	40f2                	lw	ra,28(sp)
80002fda:	4462                	lw	s0,24(sp)
80002fdc:	4501                	li	a0,0
80002fde:	6105                	addi	sp,sp,32
80002fe0:	8082                	ret
80002fe2:	4501                	li	a0,0
80002fe4:	8082                	ret

80002fe6 <std>:
80002fe6:	1141                	addi	sp,sp,-16
80002fe8:	c422                	sw	s0,8(sp)
80002fea:	c606                	sw	ra,12(sp)
80002fec:	842a                	mv	s0,a0
80002fee:	00b51623          	sh	a1,12(a0)
80002ff2:	00c51723          	sh	a2,14(a0)
80002ff6:	00052023          	sw	zero,0(a0)
80002ffa:	00052223          	sw	zero,4(a0)
80002ffe:	00052423          	sw	zero,8(a0)
80003002:	06052223          	sw	zero,100(a0)
80003006:	00052823          	sw	zero,16(a0)
8000300a:	00052a23          	sw	zero,20(a0)
8000300e:	00052c23          	sw	zero,24(a0)
80003012:	4621                	li	a2,8
80003014:	4581                	li	a1,0
80003016:	05c50513          	addi	a0,a0,92
8000301a:	24c5                	jal	800032fa <memset>
8000301c:	00001797          	auipc	a5,0x1
80003020:	82878793          	addi	a5,a5,-2008 # 80003844 <__sread>
80003024:	d05c                	sw	a5,36(s0)
80003026:	00001797          	auipc	a5,0x1
8000302a:	84e78793          	addi	a5,a5,-1970 # 80003874 <__swrite>
8000302e:	d41c                	sw	a5,40(s0)
80003030:	00001797          	auipc	a5,0x1
80003034:	89278793          	addi	a5,a5,-1902 # 800038c2 <__sseek>
80003038:	d45c                	sw	a5,44(s0)
8000303a:	00001797          	auipc	a5,0x1
8000303e:	8be78793          	addi	a5,a5,-1858 # 800038f8 <__sclose>
80003042:	40b2                	lw	ra,12(sp)
80003044:	d000                	sw	s0,32(s0)
80003046:	d81c                	sw	a5,48(s0)
80003048:	4422                	lw	s0,8(sp)
8000304a:	0141                	addi	sp,sp,16
8000304c:	8082                	ret

8000304e <_cleanup_r>:
8000304e:	00000597          	auipc	a1,0x0
80003052:	f3458593          	addi	a1,a1,-204 # 80002f82 <_fflush_r>
80003056:	a291                	j	8000319a <_fwalk_reent>

80003058 <__sfmoreglue>:
80003058:	1141                	addi	sp,sp,-16
8000305a:	c226                	sw	s1,4(sp)
8000305c:	06800613          	li	a2,104
80003060:	fff58493          	addi	s1,a1,-1
80003064:	02c484b3          	mul	s1,s1,a2
80003068:	c04a                	sw	s2,0(sp)
8000306a:	892e                	mv	s2,a1
8000306c:	c422                	sw	s0,8(sp)
8000306e:	c606                	sw	ra,12(sp)
80003070:	07448593          	addi	a1,s1,116
80003074:	2ec1                	jal	80003444 <_malloc_r>
80003076:	842a                	mv	s0,a0
80003078:	c919                	beqz	a0,8000308e <__sfmoreglue+0x36>
8000307a:	00052023          	sw	zero,0(a0)
8000307e:	01252223          	sw	s2,4(a0)
80003082:	0531                	addi	a0,a0,12
80003084:	c408                	sw	a0,8(s0)
80003086:	06848613          	addi	a2,s1,104
8000308a:	4581                	li	a1,0
8000308c:	24bd                	jal	800032fa <memset>
8000308e:	40b2                	lw	ra,12(sp)
80003090:	8522                	mv	a0,s0
80003092:	4422                	lw	s0,8(sp)
80003094:	4492                	lw	s1,4(sp)
80003096:	4902                	lw	s2,0(sp)
80003098:	0141                	addi	sp,sp,16
8000309a:	8082                	ret

8000309c <__sinit>:
8000309c:	4d1c                	lw	a5,24(a0)
8000309e:	e3ad                	bnez	a5,80003100 <__sinit+0x64>
800030a0:	1141                	addi	sp,sp,-16
800030a2:	c422                	sw	s0,8(sp)
800030a4:	c606                	sw	ra,12(sp)
800030a6:	00000797          	auipc	a5,0x0
800030aa:	fa878793          	addi	a5,a5,-88 # 8000304e <_cleanup_r>
800030ae:	d51c                	sw	a5,40(a0)
800030b0:	04052423          	sw	zero,72(a0)
800030b4:	04052623          	sw	zero,76(a0)
800030b8:	04052823          	sw	zero,80(a0)
800030bc:	80c1a783          	lw	a5,-2036(gp) # 9000006c <_global_impure_ptr>
800030c0:	842a                	mv	s0,a0
800030c2:	00f51463          	bne	a0,a5,800030ca <__sinit+0x2e>
800030c6:	4785                	li	a5,1
800030c8:	cd1c                	sw	a5,24(a0)
800030ca:	8522                	mv	a0,s0
800030cc:	281d                	jal	80003102 <__sfp>
800030ce:	c048                	sw	a0,4(s0)
800030d0:	8522                	mv	a0,s0
800030d2:	2805                	jal	80003102 <__sfp>
800030d4:	c408                	sw	a0,8(s0)
800030d6:	8522                	mv	a0,s0
800030d8:	202d                	jal	80003102 <__sfp>
800030da:	c448                	sw	a0,12(s0)
800030dc:	4048                	lw	a0,4(s0)
800030de:	4601                	li	a2,0
800030e0:	4591                	li	a1,4
800030e2:	3711                	jal	80002fe6 <std>
800030e4:	4408                	lw	a0,8(s0)
800030e6:	4605                	li	a2,1
800030e8:	45a5                	li	a1,9
800030ea:	3df5                	jal	80002fe6 <std>
800030ec:	4448                	lw	a0,12(s0)
800030ee:	4609                	li	a2,2
800030f0:	45c9                	li	a1,18
800030f2:	3dd5                	jal	80002fe6 <std>
800030f4:	4785                	li	a5,1
800030f6:	40b2                	lw	ra,12(sp)
800030f8:	cc1c                	sw	a5,24(s0)
800030fa:	4422                	lw	s0,8(sp)
800030fc:	0141                	addi	sp,sp,16
800030fe:	8082                	ret
80003100:	8082                	ret

80003102 <__sfp>:
80003102:	1141                	addi	sp,sp,-16
80003104:	c226                	sw	s1,4(sp)
80003106:	80c1a483          	lw	s1,-2036(gp) # 9000006c <_global_impure_ptr>
8000310a:	4c9c                	lw	a5,24(s1)
8000310c:	c04a                	sw	s2,0(sp)
8000310e:	c606                	sw	ra,12(sp)
80003110:	c422                	sw	s0,8(sp)
80003112:	892a                	mv	s2,a0
80003114:	e399                	bnez	a5,8000311a <__sfp+0x18>
80003116:	8526                	mv	a0,s1
80003118:	3751                	jal	8000309c <__sinit>
8000311a:	04848493          	addi	s1,s1,72
8000311e:	4480                	lw	s0,8(s1)
80003120:	40dc                	lw	a5,4(s1)
80003122:	17fd                	addi	a5,a5,-1
80003124:	0007d663          	bgez	a5,80003130 <__sfp+0x2e>
80003128:	409c                	lw	a5,0(s1)
8000312a:	cfb1                	beqz	a5,80003186 <__sfp+0x84>
8000312c:	4084                	lw	s1,0(s1)
8000312e:	bfc5                	j	8000311e <__sfp+0x1c>
80003130:	00c41703          	lh	a4,12(s0)
80003134:	e731                	bnez	a4,80003180 <__sfp+0x7e>
80003136:	77c1                	lui	a5,0xffff0
80003138:	0785                	addi	a5,a5,1
8000313a:	06042223          	sw	zero,100(s0)
8000313e:	00042023          	sw	zero,0(s0)
80003142:	00042223          	sw	zero,4(s0)
80003146:	00042423          	sw	zero,8(s0)
8000314a:	c45c                	sw	a5,12(s0)
8000314c:	00042823          	sw	zero,16(s0)
80003150:	00042a23          	sw	zero,20(s0)
80003154:	00042c23          	sw	zero,24(s0)
80003158:	4621                	li	a2,8
8000315a:	4581                	li	a1,0
8000315c:	05c40513          	addi	a0,s0,92
80003160:	2a69                	jal	800032fa <memset>
80003162:	02042a23          	sw	zero,52(s0)
80003166:	02042c23          	sw	zero,56(s0)
8000316a:	04042423          	sw	zero,72(s0)
8000316e:	04042623          	sw	zero,76(s0)
80003172:	40b2                	lw	ra,12(sp)
80003174:	8522                	mv	a0,s0
80003176:	4422                	lw	s0,8(sp)
80003178:	4492                	lw	s1,4(sp)
8000317a:	4902                	lw	s2,0(sp)
8000317c:	0141                	addi	sp,sp,16
8000317e:	8082                	ret
80003180:	06840413          	addi	s0,s0,104
80003184:	bf79                	j	80003122 <__sfp+0x20>
80003186:	4591                	li	a1,4
80003188:	854a                	mv	a0,s2
8000318a:	35f9                	jal	80003058 <__sfmoreglue>
8000318c:	c088                	sw	a0,0(s1)
8000318e:	842a                	mv	s0,a0
80003190:	fd51                	bnez	a0,8000312c <__sfp+0x2a>
80003192:	47b1                	li	a5,12
80003194:	00f92023          	sw	a5,0(s2)
80003198:	bfe9                	j	80003172 <__sfp+0x70>

8000319a <_fwalk_reent>:
8000319a:	7179                	addi	sp,sp,-48
8000319c:	d422                	sw	s0,40(sp)
8000319e:	d04a                	sw	s2,32(sp)
800031a0:	ce4e                	sw	s3,28(sp)
800031a2:	cc52                	sw	s4,24(sp)
800031a4:	c85a                	sw	s6,16(sp)
800031a6:	c65e                	sw	s7,12(sp)
800031a8:	d606                	sw	ra,44(sp)
800031aa:	d226                	sw	s1,36(sp)
800031ac:	ca56                	sw	s5,20(sp)
800031ae:	892a                	mv	s2,a0
800031b0:	8a2e                	mv	s4,a1
800031b2:	04850413          	addi	s0,a0,72
800031b6:	4981                	li	s3,0
800031b8:	4b05                	li	s6,1
800031ba:	5bfd                	li	s7,-1
800031bc:	4404                	lw	s1,8(s0)
800031be:	00442a83          	lw	s5,4(s0)
800031c2:	1afd                	addi	s5,s5,-1
800031c4:	020ad063          	bgez	s5,800031e4 <_fwalk_reent+0x4a>
800031c8:	4000                	lw	s0,0(s0)
800031ca:	f86d                	bnez	s0,800031bc <_fwalk_reent+0x22>
800031cc:	50b2                	lw	ra,44(sp)
800031ce:	5422                	lw	s0,40(sp)
800031d0:	5492                	lw	s1,36(sp)
800031d2:	5902                	lw	s2,32(sp)
800031d4:	4a62                	lw	s4,24(sp)
800031d6:	4ad2                	lw	s5,20(sp)
800031d8:	4b42                	lw	s6,16(sp)
800031da:	4bb2                	lw	s7,12(sp)
800031dc:	854e                	mv	a0,s3
800031de:	49f2                	lw	s3,28(sp)
800031e0:	6145                	addi	sp,sp,48
800031e2:	8082                	ret
800031e4:	00c4d783          	lhu	a5,12(s1)
800031e8:	00fb7b63          	bgeu	s6,a5,800031fe <_fwalk_reent+0x64>
800031ec:	00e49783          	lh	a5,14(s1)
800031f0:	01778763          	beq	a5,s7,800031fe <_fwalk_reent+0x64>
800031f4:	85a6                	mv	a1,s1
800031f6:	854a                	mv	a0,s2
800031f8:	9a02                	jalr	s4
800031fa:	00a9e9b3          	or	s3,s3,a0
800031fe:	06848493          	addi	s1,s1,104
80003202:	b7c1                	j	800031c2 <_fwalk_reent+0x28>

80003204 <__swhatbuf_r>:
80003204:	7159                	addi	sp,sp,-112
80003206:	d0ca                	sw	s2,96(sp)
80003208:	892e                	mv	s2,a1
8000320a:	00e59583          	lh	a1,14(a1)
8000320e:	d4a2                	sw	s0,104(sp)
80003210:	d2a6                	sw	s1,100(sp)
80003212:	d686                	sw	ra,108(sp)
80003214:	8432                	mv	s0,a2
80003216:	84b6                	mv	s1,a3
80003218:	0005dc63          	bgez	a1,80003230 <__swhatbuf_r+0x2c>
8000321c:	00c95783          	lhu	a5,12(s2)
80003220:	0004a023          	sw	zero,0(s1)
80003224:	0807f793          	andi	a5,a5,128
80003228:	e38d                	bnez	a5,8000324a <__swhatbuf_r+0x46>
8000322a:	40000793          	li	a5,1024
8000322e:	a005                	j	8000324e <__swhatbuf_r+0x4a>
80003230:	0030                	addi	a2,sp,8
80003232:	2705                	jal	80003952 <_fstat_r>
80003234:	fe0544e3          	bltz	a0,8000321c <__swhatbuf_r+0x18>
80003238:	4732                	lw	a4,12(sp)
8000323a:	67bd                	lui	a5,0xf
8000323c:	8ff9                	and	a5,a5,a4
8000323e:	7779                	lui	a4,0xffffe
80003240:	97ba                	add	a5,a5,a4
80003242:	0017b793          	seqz	a5,a5
80003246:	c09c                	sw	a5,0(s1)
80003248:	b7cd                	j	8000322a <__swhatbuf_r+0x26>
8000324a:	04000793          	li	a5,64
8000324e:	50b6                	lw	ra,108(sp)
80003250:	c01c                	sw	a5,0(s0)
80003252:	5426                	lw	s0,104(sp)
80003254:	5496                	lw	s1,100(sp)
80003256:	5906                	lw	s2,96(sp)
80003258:	4501                	li	a0,0
8000325a:	6165                	addi	sp,sp,112
8000325c:	8082                	ret

8000325e <__smakebuf_r>:
8000325e:	00c5d783          	lhu	a5,12(a1)
80003262:	1101                	addi	sp,sp,-32
80003264:	cc22                	sw	s0,24(sp)
80003266:	ce06                	sw	ra,28(sp)
80003268:	ca26                	sw	s1,20(sp)
8000326a:	c84a                	sw	s2,16(sp)
8000326c:	8b89                	andi	a5,a5,2
8000326e:	842e                	mv	s0,a1
80003270:	cf89                	beqz	a5,8000328a <__smakebuf_r+0x2c>
80003272:	04740793          	addi	a5,s0,71
80003276:	c01c                	sw	a5,0(s0)
80003278:	c81c                	sw	a5,16(s0)
8000327a:	4785                	li	a5,1
8000327c:	c85c                	sw	a5,20(s0)
8000327e:	40f2                	lw	ra,28(sp)
80003280:	4462                	lw	s0,24(sp)
80003282:	44d2                	lw	s1,20(sp)
80003284:	4942                	lw	s2,16(sp)
80003286:	6105                	addi	sp,sp,32
80003288:	8082                	ret
8000328a:	0074                	addi	a3,sp,12
8000328c:	0030                	addi	a2,sp,8
8000328e:	892a                	mv	s2,a0
80003290:	3f95                	jal	80003204 <__swhatbuf_r>
80003292:	45a2                	lw	a1,8(sp)
80003294:	84aa                	mv	s1,a0
80003296:	854a                	mv	a0,s2
80003298:	2275                	jal	80003444 <_malloc_r>
8000329a:	ed01                	bnez	a0,800032b2 <__smakebuf_r+0x54>
8000329c:	00c41783          	lh	a5,12(s0)
800032a0:	2007f713          	andi	a4,a5,512
800032a4:	ff69                	bnez	a4,8000327e <__smakebuf_r+0x20>
800032a6:	9bf1                	andi	a5,a5,-4
800032a8:	0027e793          	ori	a5,a5,2
800032ac:	00f41623          	sh	a5,12(s0)
800032b0:	b7c9                	j	80003272 <__smakebuf_r+0x14>
800032b2:	00000797          	auipc	a5,0x0
800032b6:	d9c78793          	addi	a5,a5,-612 # 8000304e <_cleanup_r>
800032ba:	02f92423          	sw	a5,40(s2)
800032be:	00c45783          	lhu	a5,12(s0)
800032c2:	c008                	sw	a0,0(s0)
800032c4:	c808                	sw	a0,16(s0)
800032c6:	0807e793          	ori	a5,a5,128
800032ca:	00f41623          	sh	a5,12(s0)
800032ce:	47a2                	lw	a5,8(sp)
800032d0:	c85c                	sw	a5,20(s0)
800032d2:	47b2                	lw	a5,12(sp)
800032d4:	cf89                	beqz	a5,800032ee <__smakebuf_r+0x90>
800032d6:	00e41583          	lh	a1,14(s0)
800032da:	854a                	mv	a0,s2
800032dc:	2545                	jal	8000397c <_isatty_r>
800032de:	c901                	beqz	a0,800032ee <__smakebuf_r+0x90>
800032e0:	00c45783          	lhu	a5,12(s0)
800032e4:	9bf1                	andi	a5,a5,-4
800032e6:	0017e793          	ori	a5,a5,1
800032ea:	00f41623          	sh	a5,12(s0)
800032ee:	00c45503          	lhu	a0,12(s0)
800032f2:	8cc9                	or	s1,s1,a0
800032f4:	00941623          	sh	s1,12(s0)
800032f8:	b759                	j	8000327e <__smakebuf_r+0x20>

800032fa <memset>:
800032fa:	433d                	li	t1,15
800032fc:	872a                	mv	a4,a0
800032fe:	02c37363          	bgeu	t1,a2,80003324 <memset+0x2a>
80003302:	00f77793          	andi	a5,a4,15
80003306:	efbd                	bnez	a5,80003384 <memset+0x8a>
80003308:	e5ad                	bnez	a1,80003372 <memset+0x78>
8000330a:	ff067693          	andi	a3,a2,-16
8000330e:	8a3d                	andi	a2,a2,15
80003310:	96ba                	add	a3,a3,a4
80003312:	c30c                	sw	a1,0(a4)
80003314:	c34c                	sw	a1,4(a4)
80003316:	c70c                	sw	a1,8(a4)
80003318:	c74c                	sw	a1,12(a4)
8000331a:	0741                	addi	a4,a4,16
8000331c:	fed76be3          	bltu	a4,a3,80003312 <memset+0x18>
80003320:	e211                	bnez	a2,80003324 <memset+0x2a>
80003322:	8082                	ret
80003324:	40c306b3          	sub	a3,t1,a2
80003328:	068a                	slli	a3,a3,0x2
8000332a:	00000297          	auipc	t0,0x0
8000332e:	9696                	add	a3,a3,t0
80003330:	00a68067          	jr	10(a3)
80003334:	00b70723          	sb	a1,14(a4) # ffffe00e <_sp+0x6ffee00e>
80003338:	00b706a3          	sb	a1,13(a4)
8000333c:	00b70623          	sb	a1,12(a4)
80003340:	00b705a3          	sb	a1,11(a4)
80003344:	00b70523          	sb	a1,10(a4)
80003348:	00b704a3          	sb	a1,9(a4)
8000334c:	00b70423          	sb	a1,8(a4)
80003350:	00b703a3          	sb	a1,7(a4)
80003354:	00b70323          	sb	a1,6(a4)
80003358:	00b702a3          	sb	a1,5(a4)
8000335c:	00b70223          	sb	a1,4(a4)
80003360:	00b701a3          	sb	a1,3(a4)
80003364:	00b70123          	sb	a1,2(a4)
80003368:	00b700a3          	sb	a1,1(a4)
8000336c:	00b70023          	sb	a1,0(a4)
80003370:	8082                	ret
80003372:	0ff5f593          	andi	a1,a1,255
80003376:	00859693          	slli	a3,a1,0x8
8000337a:	8dd5                	or	a1,a1,a3
8000337c:	01059693          	slli	a3,a1,0x10
80003380:	8dd5                	or	a1,a1,a3
80003382:	b761                	j	8000330a <memset+0x10>
80003384:	00279693          	slli	a3,a5,0x2
80003388:	00000297          	auipc	t0,0x0
8000338c:	9696                	add	a3,a3,t0
8000338e:	8286                	mv	t0,ra
80003390:	fa8680e7          	jalr	-88(a3)
80003394:	8096                	mv	ra,t0
80003396:	17c1                	addi	a5,a5,-16
80003398:	8f1d                	sub	a4,a4,a5
8000339a:	963e                	add	a2,a2,a5
8000339c:	f8c374e3          	bgeu	t1,a2,80003324 <memset+0x2a>
800033a0:	b7a5                	j	80003308 <memset+0xe>

800033a2 <_free_r>:
800033a2:	c1c5                	beqz	a1,80003442 <_free_r+0xa0>
800033a4:	ffc5a783          	lw	a5,-4(a1)
800033a8:	1101                	addi	sp,sp,-32
800033aa:	cc22                	sw	s0,24(sp)
800033ac:	ce06                	sw	ra,28(sp)
800033ae:	ffc58413          	addi	s0,a1,-4
800033b2:	0007d363          	bgez	a5,800033b8 <_free_r+0x16>
800033b6:	943e                	add	s0,s0,a5
800033b8:	c62a                	sw	a0,12(sp)
800033ba:	2d05                	jal	800039ea <__malloc_lock>
800033bc:	84418713          	addi	a4,gp,-1980 # 900000a4 <__malloc_free_list>
800033c0:	431c                	lw	a5,0(a4)
800033c2:	4532                	lw	a0,12(sp)
800033c4:	863a                	mv	a2,a4
800033c6:	eb81                	bnez	a5,800033d6 <_free_r+0x34>
800033c8:	00042223          	sw	zero,4(s0)
800033cc:	c300                	sw	s0,0(a4)
800033ce:	4462                	lw	s0,24(sp)
800033d0:	40f2                	lw	ra,28(sp)
800033d2:	6105                	addi	sp,sp,32
800033d4:	ad21                	j	800039ec <__malloc_unlock>
800033d6:	00f47e63          	bgeu	s0,a5,800033f2 <_free_r+0x50>
800033da:	4014                	lw	a3,0(s0)
800033dc:	00d40733          	add	a4,s0,a3
800033e0:	00e79663          	bne	a5,a4,800033ec <_free_r+0x4a>
800033e4:	4398                	lw	a4,0(a5)
800033e6:	43dc                	lw	a5,4(a5)
800033e8:	9736                	add	a4,a4,a3
800033ea:	c018                	sw	a4,0(s0)
800033ec:	c05c                	sw	a5,4(s0)
800033ee:	c200                	sw	s0,0(a2)
800033f0:	bff9                	j	800033ce <_free_r+0x2c>
800033f2:	873e                	mv	a4,a5
800033f4:	43dc                	lw	a5,4(a5)
800033f6:	c399                	beqz	a5,800033fc <_free_r+0x5a>
800033f8:	fef47de3          	bgeu	s0,a5,800033f2 <_free_r+0x50>
800033fc:	4314                	lw	a3,0(a4)
800033fe:	00d70633          	add	a2,a4,a3
80003402:	00861f63          	bne	a2,s0,80003420 <_free_r+0x7e>
80003406:	4010                	lw	a2,0(s0)
80003408:	96b2                	add	a3,a3,a2
8000340a:	c314                	sw	a3,0(a4)
8000340c:	00d70633          	add	a2,a4,a3
80003410:	fac79fe3          	bne	a5,a2,800033ce <_free_r+0x2c>
80003414:	4390                	lw	a2,0(a5)
80003416:	43dc                	lw	a5,4(a5)
80003418:	96b2                	add	a3,a3,a2
8000341a:	c314                	sw	a3,0(a4)
8000341c:	c35c                	sw	a5,4(a4)
8000341e:	bf45                	j	800033ce <_free_r+0x2c>
80003420:	00c47563          	bgeu	s0,a2,8000342a <_free_r+0x88>
80003424:	47b1                	li	a5,12
80003426:	c11c                	sw	a5,0(a0)
80003428:	b75d                	j	800033ce <_free_r+0x2c>
8000342a:	4010                	lw	a2,0(s0)
8000342c:	00c406b3          	add	a3,s0,a2
80003430:	00d79663          	bne	a5,a3,8000343c <_free_r+0x9a>
80003434:	4394                	lw	a3,0(a5)
80003436:	43dc                	lw	a5,4(a5)
80003438:	96b2                	add	a3,a3,a2
8000343a:	c014                	sw	a3,0(s0)
8000343c:	c05c                	sw	a5,4(s0)
8000343e:	c340                	sw	s0,4(a4)
80003440:	b779                	j	800033ce <_free_r+0x2c>
80003442:	8082                	ret

80003444 <_malloc_r>:
80003444:	1101                	addi	sp,sp,-32
80003446:	ca26                	sw	s1,20(sp)
80003448:	00358493          	addi	s1,a1,3
8000344c:	98f1                	andi	s1,s1,-4
8000344e:	c84a                	sw	s2,16(sp)
80003450:	ce06                	sw	ra,28(sp)
80003452:	cc22                	sw	s0,24(sp)
80003454:	c64e                	sw	s3,12(sp)
80003456:	04a1                	addi	s1,s1,8
80003458:	47b1                	li	a5,12
8000345a:	892a                	mv	s2,a0
8000345c:	04f4f163          	bgeu	s1,a5,8000349e <_malloc_r+0x5a>
80003460:	44b1                	li	s1,12
80003462:	04b4e063          	bltu	s1,a1,800034a2 <_malloc_r+0x5e>
80003466:	854a                	mv	a0,s2
80003468:	2349                	jal	800039ea <__malloc_lock>
8000346a:	84418793          	addi	a5,gp,-1980 # 900000a4 <__malloc_free_list>
8000346e:	4398                	lw	a4,0(a5)
80003470:	86be                	mv	a3,a5
80003472:	843a                	mv	s0,a4
80003474:	e031                	bnez	s0,800034b8 <_malloc_r+0x74>
80003476:	84818413          	addi	s0,gp,-1976 # 900000a8 <__malloc_sbrk_start>
8000347a:	401c                	lw	a5,0(s0)
8000347c:	e789                	bnez	a5,80003486 <_malloc_r+0x42>
8000347e:	4581                	li	a1,0
80003480:	854a                	mv	a0,s2
80003482:	2e69                	jal	8000381c <_sbrk_r>
80003484:	c008                	sw	a0,0(s0)
80003486:	85a6                	mv	a1,s1
80003488:	854a                	mv	a0,s2
8000348a:	2e49                	jal	8000381c <_sbrk_r>
8000348c:	59fd                	li	s3,-1
8000348e:	07351863          	bne	a0,s3,800034fe <_malloc_r+0xba>
80003492:	47b1                	li	a5,12
80003494:	00f92023          	sw	a5,0(s2)
80003498:	854a                	mv	a0,s2
8000349a:	2b89                	jal	800039ec <__malloc_unlock>
8000349c:	a031                	j	800034a8 <_malloc_r+0x64>
8000349e:	fc04d2e3          	bgez	s1,80003462 <_malloc_r+0x1e>
800034a2:	47b1                	li	a5,12
800034a4:	00f92023          	sw	a5,0(s2)
800034a8:	4501                	li	a0,0
800034aa:	40f2                	lw	ra,28(sp)
800034ac:	4462                	lw	s0,24(sp)
800034ae:	44d2                	lw	s1,20(sp)
800034b0:	4942                	lw	s2,16(sp)
800034b2:	49b2                	lw	s3,12(sp)
800034b4:	6105                	addi	sp,sp,32
800034b6:	8082                	ret
800034b8:	401c                	lw	a5,0(s0)
800034ba:	8f85                	sub	a5,a5,s1
800034bc:	0207ce63          	bltz	a5,800034f8 <_malloc_r+0xb4>
800034c0:	462d                	li	a2,11
800034c2:	00f67663          	bgeu	a2,a5,800034ce <_malloc_r+0x8a>
800034c6:	c01c                	sw	a5,0(s0)
800034c8:	943e                	add	s0,s0,a5
800034ca:	c004                	sw	s1,0(s0)
800034cc:	a029                	j	800034d6 <_malloc_r+0x92>
800034ce:	405c                	lw	a5,4(s0)
800034d0:	02871263          	bne	a4,s0,800034f4 <_malloc_r+0xb0>
800034d4:	c29c                	sw	a5,0(a3)
800034d6:	854a                	mv	a0,s2
800034d8:	2b11                	jal	800039ec <__malloc_unlock>
800034da:	00b40513          	addi	a0,s0,11
800034de:	00440793          	addi	a5,s0,4
800034e2:	9961                	andi	a0,a0,-8
800034e4:	40f50733          	sub	a4,a0,a5
800034e8:	fcf501e3          	beq	a0,a5,800034aa <_malloc_r+0x66>
800034ec:	943a                	add	s0,s0,a4
800034ee:	8f89                	sub	a5,a5,a0
800034f0:	c01c                	sw	a5,0(s0)
800034f2:	bf65                	j	800034aa <_malloc_r+0x66>
800034f4:	c35c                	sw	a5,4(a4)
800034f6:	b7c5                	j	800034d6 <_malloc_r+0x92>
800034f8:	8722                	mv	a4,s0
800034fa:	4040                	lw	s0,4(s0)
800034fc:	bfa5                	j	80003474 <_malloc_r+0x30>
800034fe:	00350413          	addi	s0,a0,3
80003502:	9871                	andi	s0,s0,-4
80003504:	fc8503e3          	beq	a0,s0,800034ca <_malloc_r+0x86>
80003508:	40a405b3          	sub	a1,s0,a0
8000350c:	854a                	mv	a0,s2
8000350e:	2639                	jal	8000381c <_sbrk_r>
80003510:	fb351de3          	bne	a0,s3,800034ca <_malloc_r+0x86>
80003514:	bfbd                	j	80003492 <_malloc_r+0x4e>

80003516 <__sfputc_r>:
80003516:	461c                	lw	a5,8(a2)
80003518:	17fd                	addi	a5,a5,-1
8000351a:	c61c                	sw	a5,8(a2)
8000351c:	0007da63          	bgez	a5,80003530 <__sfputc_r+0x1a>
80003520:	4e18                	lw	a4,24(a2)
80003522:	00e7c563          	blt	a5,a4,8000352c <__sfputc_r+0x16>
80003526:	47a9                	li	a5,10
80003528:	00f59463          	bne	a1,a5,80003530 <__sfputc_r+0x1a>
8000352c:	eceff06f          	j	80002bfa <__swbuf_r>
80003530:	421c                	lw	a5,0(a2)
80003532:	852e                	mv	a0,a1
80003534:	00178713          	addi	a4,a5,1
80003538:	c218                	sw	a4,0(a2)
8000353a:	00b78023          	sb	a1,0(a5)
8000353e:	8082                	ret

80003540 <__sfputs_r>:
80003540:	1101                	addi	sp,sp,-32
80003542:	cc22                	sw	s0,24(sp)
80003544:	ca26                	sw	s1,20(sp)
80003546:	c84a                	sw	s2,16(sp)
80003548:	c64e                	sw	s3,12(sp)
8000354a:	c452                	sw	s4,8(sp)
8000354c:	ce06                	sw	ra,28(sp)
8000354e:	892a                	mv	s2,a0
80003550:	89ae                	mv	s3,a1
80003552:	8432                	mv	s0,a2
80003554:	00d604b3          	add	s1,a2,a3
80003558:	5a7d                	li	s4,-1
8000355a:	00941463          	bne	s0,s1,80003562 <__sfputs_r+0x22>
8000355e:	4501                	li	a0,0
80003560:	a809                	j	80003572 <__sfputs_r+0x32>
80003562:	00044583          	lbu	a1,0(s0)
80003566:	864e                	mv	a2,s3
80003568:	854a                	mv	a0,s2
8000356a:	3775                	jal	80003516 <__sfputc_r>
8000356c:	0405                	addi	s0,s0,1
8000356e:	ff4516e3          	bne	a0,s4,8000355a <__sfputs_r+0x1a>
80003572:	40f2                	lw	ra,28(sp)
80003574:	4462                	lw	s0,24(sp)
80003576:	44d2                	lw	s1,20(sp)
80003578:	4942                	lw	s2,16(sp)
8000357a:	49b2                	lw	s3,12(sp)
8000357c:	4a22                	lw	s4,8(sp)
8000357e:	6105                	addi	sp,sp,32
80003580:	8082                	ret

80003582 <_vfiprintf_r>:
80003582:	7135                	addi	sp,sp,-160
80003584:	cd22                	sw	s0,152(sp)
80003586:	cb26                	sw	s1,148(sp)
80003588:	c94a                	sw	s2,144(sp)
8000358a:	c74e                	sw	s3,140(sp)
8000358c:	cf06                	sw	ra,156(sp)
8000358e:	c552                	sw	s4,136(sp)
80003590:	c356                	sw	s5,132(sp)
80003592:	c15a                	sw	s6,128(sp)
80003594:	dede                	sw	s7,124(sp)
80003596:	dce2                	sw	s8,120(sp)
80003598:	dae6                	sw	s9,116(sp)
8000359a:	89aa                	mv	s3,a0
8000359c:	84ae                	mv	s1,a1
8000359e:	8932                	mv	s2,a2
800035a0:	8436                	mv	s0,a3
800035a2:	c509                	beqz	a0,800035ac <_vfiprintf_r+0x2a>
800035a4:	4d1c                	lw	a5,24(a0)
800035a6:	e399                	bnez	a5,800035ac <_vfiprintf_r+0x2a>
800035a8:	af5ff0ef          	jal	ra,8000309c <__sinit>
800035ac:	00001797          	auipc	a5,0x1
800035b0:	ca478793          	addi	a5,a5,-860 # 80004250 <__sf_fake_stdin>
800035b4:	0cf49b63          	bne	s1,a5,8000368a <_vfiprintf_r+0x108>
800035b8:	0049a483          	lw	s1,4(s3)
800035bc:	00c4d783          	lhu	a5,12(s1)
800035c0:	8ba1                	andi	a5,a5,8
800035c2:	c7f5                	beqz	a5,800036ae <_vfiprintf_r+0x12c>
800035c4:	489c                	lw	a5,16(s1)
800035c6:	c7e5                	beqz	a5,800036ae <_vfiprintf_r+0x12c>
800035c8:	02000793          	li	a5,32
800035cc:	02f104a3          	sb	a5,41(sp)
800035d0:	03000793          	li	a5,48
800035d4:	d202                	sw	zero,36(sp)
800035d6:	02f10523          	sb	a5,42(sp)
800035da:	c622                	sw	s0,12(sp)
800035dc:	02500b93          	li	s7,37
800035e0:	00001a97          	auipc	s5,0x1
800035e4:	cb0a8a93          	addi	s5,s5,-848 # 80004290 <__sf_fake_stdout+0x20>
800035e8:	4c05                	li	s8,1
800035ea:	4b29                	li	s6,10
800035ec:	844a                	mv	s0,s2
800035ee:	00044783          	lbu	a5,0(s0)
800035f2:	c399                	beqz	a5,800035f8 <_vfiprintf_r+0x76>
800035f4:	0f779063          	bne	a5,s7,800036d4 <_vfiprintf_r+0x152>
800035f8:	41240cb3          	sub	s9,s0,s2
800035fc:	01240d63          	beq	s0,s2,80003616 <_vfiprintf_r+0x94>
80003600:	86e6                	mv	a3,s9
80003602:	864a                	mv	a2,s2
80003604:	85a6                	mv	a1,s1
80003606:	854e                	mv	a0,s3
80003608:	3f25                	jal	80003540 <__sfputs_r>
8000360a:	57fd                	li	a5,-1
8000360c:	1ef50663          	beq	a0,a5,800037f8 <_vfiprintf_r+0x276>
80003610:	5792                	lw	a5,36(sp)
80003612:	97e6                	add	a5,a5,s9
80003614:	d23e                	sw	a5,36(sp)
80003616:	00044783          	lbu	a5,0(s0)
8000361a:	1c078f63          	beqz	a5,800037f8 <_vfiprintf_r+0x276>
8000361e:	57fd                	li	a5,-1
80003620:	00140913          	addi	s2,s0,1
80003624:	c802                	sw	zero,16(sp)
80003626:	ce02                	sw	zero,28(sp)
80003628:	ca3e                	sw	a5,20(sp)
8000362a:	cc02                	sw	zero,24(sp)
8000362c:	040109a3          	sb	zero,83(sp)
80003630:	d482                	sw	zero,104(sp)
80003632:	00094583          	lbu	a1,0(s2)
80003636:	4615                	li	a2,5
80003638:	8556                	mv	a0,s5
8000363a:	2e59                	jal	800039d0 <memchr>
8000363c:	47c2                	lw	a5,16(sp)
8000363e:	00190413          	addi	s0,s2,1
80003642:	e959                	bnez	a0,800036d8 <_vfiprintf_r+0x156>
80003644:	0107f713          	andi	a4,a5,16
80003648:	c709                	beqz	a4,80003652 <_vfiprintf_r+0xd0>
8000364a:	02000713          	li	a4,32
8000364e:	04e109a3          	sb	a4,83(sp)
80003652:	0087f713          	andi	a4,a5,8
80003656:	c709                	beqz	a4,80003660 <_vfiprintf_r+0xde>
80003658:	02b00713          	li	a4,43
8000365c:	04e109a3          	sb	a4,83(sp)
80003660:	00094683          	lbu	a3,0(s2)
80003664:	02a00713          	li	a4,42
80003668:	08e68063          	beq	a3,a4,800036e8 <_vfiprintf_r+0x166>
8000366c:	47f2                	lw	a5,28(sp)
8000366e:	844a                	mv	s0,s2
80003670:	4681                	li	a3,0
80003672:	4625                	li	a2,9
80003674:	00044703          	lbu	a4,0(s0)
80003678:	00140593          	addi	a1,s0,1
8000367c:	fd070713          	addi	a4,a4,-48
80003680:	0ae67963          	bgeu	a2,a4,80003732 <_vfiprintf_r+0x1b0>
80003684:	cab5                	beqz	a3,800036f8 <_vfiprintf_r+0x176>
80003686:	ce3e                	sw	a5,28(sp)
80003688:	a885                	j	800036f8 <_vfiprintf_r+0x176>
8000368a:	00001797          	auipc	a5,0x1
8000368e:	be678793          	addi	a5,a5,-1050 # 80004270 <__sf_fake_stdout>
80003692:	00f49563          	bne	s1,a5,8000369c <_vfiprintf_r+0x11a>
80003696:	0089a483          	lw	s1,8(s3)
8000369a:	b70d                	j	800035bc <_vfiprintf_r+0x3a>
8000369c:	00001797          	auipc	a5,0x1
800036a0:	b9478793          	addi	a5,a5,-1132 # 80004230 <__sf_fake_stderr>
800036a4:	f0f49ce3          	bne	s1,a5,800035bc <_vfiprintf_r+0x3a>
800036a8:	00c9a483          	lw	s1,12(s3)
800036ac:	bf01                	j	800035bc <_vfiprintf_r+0x3a>
800036ae:	85a6                	mv	a1,s1
800036b0:	854e                	mv	a0,s3
800036b2:	e08ff0ef          	jal	ra,80002cba <__swsetup_r>
800036b6:	d909                	beqz	a0,800035c8 <_vfiprintf_r+0x46>
800036b8:	557d                	li	a0,-1
800036ba:	40fa                	lw	ra,156(sp)
800036bc:	446a                	lw	s0,152(sp)
800036be:	44da                	lw	s1,148(sp)
800036c0:	494a                	lw	s2,144(sp)
800036c2:	49ba                	lw	s3,140(sp)
800036c4:	4a2a                	lw	s4,136(sp)
800036c6:	4a9a                	lw	s5,132(sp)
800036c8:	4b0a                	lw	s6,128(sp)
800036ca:	5bf6                	lw	s7,124(sp)
800036cc:	5c66                	lw	s8,120(sp)
800036ce:	5cd6                	lw	s9,116(sp)
800036d0:	610d                	addi	sp,sp,160
800036d2:	8082                	ret
800036d4:	0405                	addi	s0,s0,1
800036d6:	bf21                	j	800035ee <_vfiprintf_r+0x6c>
800036d8:	41550533          	sub	a0,a0,s5
800036dc:	00ac1533          	sll	a0,s8,a0
800036e0:	8fc9                	or	a5,a5,a0
800036e2:	c83e                	sw	a5,16(sp)
800036e4:	8922                	mv	s2,s0
800036e6:	b7b1                	j	80003632 <_vfiprintf_r+0xb0>
800036e8:	4732                	lw	a4,12(sp)
800036ea:	00470693          	addi	a3,a4,4
800036ee:	4318                	lw	a4,0(a4)
800036f0:	c636                	sw	a3,12(sp)
800036f2:	02074963          	bltz	a4,80003724 <_vfiprintf_r+0x1a2>
800036f6:	ce3a                	sw	a4,28(sp)
800036f8:	00044703          	lbu	a4,0(s0)
800036fc:	02e00793          	li	a5,46
80003700:	04f71f63          	bne	a4,a5,8000375e <_vfiprintf_r+0x1dc>
80003704:	00144703          	lbu	a4,1(s0)
80003708:	02a00793          	li	a5,42
8000370c:	02f71b63          	bne	a4,a5,80003742 <_vfiprintf_r+0x1c0>
80003710:	47b2                	lw	a5,12(sp)
80003712:	0409                	addi	s0,s0,2
80003714:	00478713          	addi	a4,a5,4
80003718:	439c                	lw	a5,0(a5)
8000371a:	c63a                	sw	a4,12(sp)
8000371c:	0207c163          	bltz	a5,8000373e <_vfiprintf_r+0x1bc>
80003720:	ca3e                	sw	a5,20(sp)
80003722:	a835                	j	8000375e <_vfiprintf_r+0x1dc>
80003724:	40e00733          	neg	a4,a4
80003728:	0027e793          	ori	a5,a5,2
8000372c:	ce3a                	sw	a4,28(sp)
8000372e:	c83e                	sw	a5,16(sp)
80003730:	b7e1                	j	800036f8 <_vfiprintf_r+0x176>
80003732:	036787b3          	mul	a5,a5,s6
80003736:	842e                	mv	s0,a1
80003738:	4685                	li	a3,1
8000373a:	97ba                	add	a5,a5,a4
8000373c:	bf25                	j	80003674 <_vfiprintf_r+0xf2>
8000373e:	57fd                	li	a5,-1
80003740:	b7c5                	j	80003720 <_vfiprintf_r+0x19e>
80003742:	0405                	addi	s0,s0,1
80003744:	ca02                	sw	zero,20(sp)
80003746:	4681                	li	a3,0
80003748:	4781                	li	a5,0
8000374a:	4625                	li	a2,9
8000374c:	00044703          	lbu	a4,0(s0)
80003750:	00140593          	addi	a1,s0,1
80003754:	fd070713          	addi	a4,a4,-48
80003758:	06e67663          	bgeu	a2,a4,800037c4 <_vfiprintf_r+0x242>
8000375c:	f2f1                	bnez	a3,80003720 <_vfiprintf_r+0x19e>
8000375e:	00044583          	lbu	a1,0(s0)
80003762:	460d                	li	a2,3
80003764:	00001517          	auipc	a0,0x1
80003768:	b3450513          	addi	a0,a0,-1228 # 80004298 <__sf_fake_stdout+0x28>
8000376c:	2495                	jal	800039d0 <memchr>
8000376e:	cd11                	beqz	a0,8000378a <_vfiprintf_r+0x208>
80003770:	00001797          	auipc	a5,0x1
80003774:	b2878793          	addi	a5,a5,-1240 # 80004298 <__sf_fake_stdout+0x28>
80003778:	8d1d                	sub	a0,a0,a5
8000377a:	04000793          	li	a5,64
8000377e:	00a797b3          	sll	a5,a5,a0
80003782:	4542                	lw	a0,16(sp)
80003784:	0405                	addi	s0,s0,1
80003786:	8d5d                	or	a0,a0,a5
80003788:	c82a                	sw	a0,16(sp)
8000378a:	00044583          	lbu	a1,0(s0)
8000378e:	4619                	li	a2,6
80003790:	00001517          	auipc	a0,0x1
80003794:	b0c50513          	addi	a0,a0,-1268 # 8000429c <__sf_fake_stdout+0x2c>
80003798:	00140913          	addi	s2,s0,1
8000379c:	02b10423          	sb	a1,40(sp)
800037a0:	2c05                	jal	800039d0 <memchr>
800037a2:	c13d                	beqz	a0,80003808 <_vfiprintf_r+0x286>
800037a4:	7fffd797          	auipc	a5,0x7fffd
800037a8:	85c78793          	addi	a5,a5,-1956 # 0 <_sp+0x6fff0000>
800037ac:	e795                	bnez	a5,800037d8 <_vfiprintf_r+0x256>
800037ae:	4742                	lw	a4,16(sp)
800037b0:	47b2                	lw	a5,12(sp)
800037b2:	10077713          	andi	a4,a4,256
800037b6:	cf09                	beqz	a4,800037d0 <_vfiprintf_r+0x24e>
800037b8:	0791                	addi	a5,a5,4
800037ba:	c63e                	sw	a5,12(sp)
800037bc:	5792                	lw	a5,36(sp)
800037be:	97d2                	add	a5,a5,s4
800037c0:	d23e                	sw	a5,36(sp)
800037c2:	b52d                	j	800035ec <_vfiprintf_r+0x6a>
800037c4:	036787b3          	mul	a5,a5,s6
800037c8:	842e                	mv	s0,a1
800037ca:	4685                	li	a3,1
800037cc:	97ba                	add	a5,a5,a4
800037ce:	bfbd                	j	8000374c <_vfiprintf_r+0x1ca>
800037d0:	079d                	addi	a5,a5,7
800037d2:	9be1                	andi	a5,a5,-8
800037d4:	07a1                	addi	a5,a5,8
800037d6:	b7d5                	j	800037ba <_vfiprintf_r+0x238>
800037d8:	0078                	addi	a4,sp,12
800037da:	00000697          	auipc	a3,0x0
800037de:	d6668693          	addi	a3,a3,-666 # 80003540 <__sfputs_r>
800037e2:	8626                	mv	a2,s1
800037e4:	080c                	addi	a1,sp,16
800037e6:	854e                	mv	a0,s3
800037e8:	00000097          	auipc	ra,0x0
800037ec:	000000e7          	jalr	zero # 0 <__stack_size-0x800>
800037f0:	57fd                	li	a5,-1
800037f2:	8a2a                	mv	s4,a0
800037f4:	fcf514e3          	bne	a0,a5,800037bc <_vfiprintf_r+0x23a>
800037f8:	00c4d783          	lhu	a5,12(s1)
800037fc:	0407f793          	andi	a5,a5,64
80003800:	ea079ce3          	bnez	a5,800036b8 <_vfiprintf_r+0x136>
80003804:	5512                	lw	a0,36(sp)
80003806:	bd55                	j	800036ba <_vfiprintf_r+0x138>
80003808:	0078                	addi	a4,sp,12
8000380a:	00000697          	auipc	a3,0x0
8000380e:	d3668693          	addi	a3,a3,-714 # 80003540 <__sfputs_r>
80003812:	8626                	mv	a2,s1
80003814:	080c                	addi	a1,sp,16
80003816:	854e                	mv	a0,s3
80003818:	24cd                	jal	80003afa <_printf_i>
8000381a:	bfd9                	j	800037f0 <_vfiprintf_r+0x26e>

8000381c <_sbrk_r>:
8000381c:	1141                	addi	sp,sp,-16
8000381e:	c422                	sw	s0,8(sp)
80003820:	842a                	mv	s0,a0
80003822:	852e                	mv	a0,a1
80003824:	a001a823          	sw	zero,-1520(gp) # 90000270 <errno>
80003828:	c606                	sw	ra,12(sp)
8000382a:	963fc0ef          	jal	ra,8000018c <_sbrk>
8000382e:	57fd                	li	a5,-1
80003830:	00f51663          	bne	a0,a5,8000383c <_sbrk_r+0x20>
80003834:	a101a783          	lw	a5,-1520(gp) # 90000270 <errno>
80003838:	c391                	beqz	a5,8000383c <_sbrk_r+0x20>
8000383a:	c01c                	sw	a5,0(s0)
8000383c:	40b2                	lw	ra,12(sp)
8000383e:	4422                	lw	s0,8(sp)
80003840:	0141                	addi	sp,sp,16
80003842:	8082                	ret

80003844 <__sread>:
80003844:	1141                	addi	sp,sp,-16
80003846:	c422                	sw	s0,8(sp)
80003848:	842e                	mv	s0,a1
8000384a:	00e59583          	lh	a1,14(a1)
8000384e:	c606                	sw	ra,12(sp)
80003850:	2b39                	jal	80003d6e <_read_r>
80003852:	00054963          	bltz	a0,80003864 <__sread+0x20>
80003856:	487c                	lw	a5,84(s0)
80003858:	97aa                	add	a5,a5,a0
8000385a:	c87c                	sw	a5,84(s0)
8000385c:	40b2                	lw	ra,12(sp)
8000385e:	4422                	lw	s0,8(sp)
80003860:	0141                	addi	sp,sp,16
80003862:	8082                	ret
80003864:	00c45783          	lhu	a5,12(s0)
80003868:	777d                	lui	a4,0xfffff
8000386a:	177d                	addi	a4,a4,-1
8000386c:	8ff9                	and	a5,a5,a4
8000386e:	00f41623          	sh	a5,12(s0)
80003872:	b7ed                	j	8000385c <__sread+0x18>

80003874 <__swrite>:
80003874:	00c5d783          	lhu	a5,12(a1)
80003878:	1101                	addi	sp,sp,-32
8000387a:	cc22                	sw	s0,24(sp)
8000387c:	ca26                	sw	s1,20(sp)
8000387e:	c84a                	sw	s2,16(sp)
80003880:	c64e                	sw	s3,12(sp)
80003882:	ce06                	sw	ra,28(sp)
80003884:	1007f793          	andi	a5,a5,256
80003888:	84aa                	mv	s1,a0
8000388a:	842e                	mv	s0,a1
8000388c:	8932                	mv	s2,a2
8000388e:	89b6                	mv	s3,a3
80003890:	c791                	beqz	a5,8000389c <__swrite+0x28>
80003892:	00e59583          	lh	a1,14(a1)
80003896:	4689                	li	a3,2
80003898:	4601                	li	a2,0
8000389a:	2229                	jal	800039a4 <_lseek_r>
8000389c:	00c45783          	lhu	a5,12(s0)
800038a0:	777d                	lui	a4,0xfffff
800038a2:	177d                	addi	a4,a4,-1
800038a4:	8ff9                	and	a5,a5,a4
800038a6:	00e41583          	lh	a1,14(s0)
800038aa:	00f41623          	sh	a5,12(s0)
800038ae:	4462                	lw	s0,24(sp)
800038b0:	40f2                	lw	ra,28(sp)
800038b2:	86ce                	mv	a3,s3
800038b4:	864a                	mv	a2,s2
800038b6:	49b2                	lw	s3,12(sp)
800038b8:	4942                	lw	s2,16(sp)
800038ba:	8526                	mv	a0,s1
800038bc:	44d2                	lw	s1,20(sp)
800038be:	6105                	addi	sp,sp,32
800038c0:	a83d                	j	800038fe <_write_r>

800038c2 <__sseek>:
800038c2:	1141                	addi	sp,sp,-16
800038c4:	c422                	sw	s0,8(sp)
800038c6:	842e                	mv	s0,a1
800038c8:	00e59583          	lh	a1,14(a1)
800038cc:	c606                	sw	ra,12(sp)
800038ce:	28d9                	jal	800039a4 <_lseek_r>
800038d0:	57fd                	li	a5,-1
800038d2:	00c45703          	lhu	a4,12(s0)
800038d6:	00f51b63          	bne	a0,a5,800038ec <__sseek+0x2a>
800038da:	77fd                	lui	a5,0xfffff
800038dc:	17fd                	addi	a5,a5,-1
800038de:	8ff9                	and	a5,a5,a4
800038e0:	00f41623          	sh	a5,12(s0)
800038e4:	40b2                	lw	ra,12(sp)
800038e6:	4422                	lw	s0,8(sp)
800038e8:	0141                	addi	sp,sp,16
800038ea:	8082                	ret
800038ec:	6785                	lui	a5,0x1
800038ee:	8fd9                	or	a5,a5,a4
800038f0:	00f41623          	sh	a5,12(s0)
800038f4:	c868                	sw	a0,84(s0)
800038f6:	b7fd                	j	800038e4 <__sseek+0x22>

800038f8 <__sclose>:
800038f8:	00e59583          	lh	a1,14(a1)
800038fc:	a03d                	j	8000392a <_close_r>

800038fe <_write_r>:
800038fe:	1141                	addi	sp,sp,-16
80003900:	c422                	sw	s0,8(sp)
80003902:	842a                	mv	s0,a0
80003904:	852e                	mv	a0,a1
80003906:	85b2                	mv	a1,a2
80003908:	8636                	mv	a2,a3
8000390a:	a001a823          	sw	zero,-1520(gp) # 90000270 <errno>
8000390e:	c606                	sw	ra,12(sp)
80003910:	8f5fc0ef          	jal	ra,80000204 <_write>
80003914:	57fd                	li	a5,-1
80003916:	00f51663          	bne	a0,a5,80003922 <_write_r+0x24>
8000391a:	a101a783          	lw	a5,-1520(gp) # 90000270 <errno>
8000391e:	c391                	beqz	a5,80003922 <_write_r+0x24>
80003920:	c01c                	sw	a5,0(s0)
80003922:	40b2                	lw	ra,12(sp)
80003924:	4422                	lw	s0,8(sp)
80003926:	0141                	addi	sp,sp,16
80003928:	8082                	ret

8000392a <_close_r>:
8000392a:	1141                	addi	sp,sp,-16
8000392c:	c422                	sw	s0,8(sp)
8000392e:	842a                	mv	s0,a0
80003930:	852e                	mv	a0,a1
80003932:	a001a823          	sw	zero,-1520(gp) # 90000270 <errno>
80003936:	c606                	sw	ra,12(sp)
80003938:	f84fc0ef          	jal	ra,800000bc <_close>
8000393c:	57fd                	li	a5,-1
8000393e:	00f51663          	bne	a0,a5,8000394a <_close_r+0x20>
80003942:	a101a783          	lw	a5,-1520(gp) # 90000270 <errno>
80003946:	c391                	beqz	a5,8000394a <_close_r+0x20>
80003948:	c01c                	sw	a5,0(s0)
8000394a:	40b2                	lw	ra,12(sp)
8000394c:	4422                	lw	s0,8(sp)
8000394e:	0141                	addi	sp,sp,16
80003950:	8082                	ret

80003952 <_fstat_r>:
80003952:	1141                	addi	sp,sp,-16
80003954:	c422                	sw	s0,8(sp)
80003956:	842a                	mv	s0,a0
80003958:	852e                	mv	a0,a1
8000395a:	85b2                	mv	a1,a2
8000395c:	a001a823          	sw	zero,-1520(gp) # 90000270 <errno>
80003960:	c606                	sw	ra,12(sp)
80003962:	f76fc0ef          	jal	ra,800000d8 <_fstat>
80003966:	57fd                	li	a5,-1
80003968:	00f51663          	bne	a0,a5,80003974 <_fstat_r+0x22>
8000396c:	a101a783          	lw	a5,-1520(gp) # 90000270 <errno>
80003970:	c391                	beqz	a5,80003974 <_fstat_r+0x22>
80003972:	c01c                	sw	a5,0(s0)
80003974:	40b2                	lw	ra,12(sp)
80003976:	4422                	lw	s0,8(sp)
80003978:	0141                	addi	sp,sp,16
8000397a:	8082                	ret

8000397c <_isatty_r>:
8000397c:	1141                	addi	sp,sp,-16
8000397e:	c422                	sw	s0,8(sp)
80003980:	842a                	mv	s0,a0
80003982:	852e                	mv	a0,a1
80003984:	a001a823          	sw	zero,-1520(gp) # 90000270 <errno>
80003988:	c606                	sw	ra,12(sp)
8000398a:	f8efc0ef          	jal	ra,80000118 <_isatty>
8000398e:	57fd                	li	a5,-1
80003990:	00f51663          	bne	a0,a5,8000399c <_isatty_r+0x20>
80003994:	a101a783          	lw	a5,-1520(gp) # 90000270 <errno>
80003998:	c391                	beqz	a5,8000399c <_isatty_r+0x20>
8000399a:	c01c                	sw	a5,0(s0)
8000399c:	40b2                	lw	ra,12(sp)
8000399e:	4422                	lw	s0,8(sp)
800039a0:	0141                	addi	sp,sp,16
800039a2:	8082                	ret

800039a4 <_lseek_r>:
800039a4:	1141                	addi	sp,sp,-16
800039a6:	c422                	sw	s0,8(sp)
800039a8:	842a                	mv	s0,a0
800039aa:	852e                	mv	a0,a1
800039ac:	85b2                	mv	a1,a2
800039ae:	8636                	mv	a2,a3
800039b0:	a001a823          	sw	zero,-1520(gp) # 90000270 <errno>
800039b4:	c606                	sw	ra,12(sp)
800039b6:	f76fc0ef          	jal	ra,8000012c <_lseek>
800039ba:	57fd                	li	a5,-1
800039bc:	00f51663          	bne	a0,a5,800039c8 <_lseek_r+0x24>
800039c0:	a101a783          	lw	a5,-1520(gp) # 90000270 <errno>
800039c4:	c391                	beqz	a5,800039c8 <_lseek_r+0x24>
800039c6:	c01c                	sw	a5,0(s0)
800039c8:	40b2                	lw	ra,12(sp)
800039ca:	4422                	lw	s0,8(sp)
800039cc:	0141                	addi	sp,sp,16
800039ce:	8082                	ret

800039d0 <memchr>:
800039d0:	0ff5f593          	andi	a1,a1,255
800039d4:	962a                	add	a2,a2,a0
800039d6:	00c51463          	bne	a0,a2,800039de <memchr+0xe>
800039da:	4501                	li	a0,0
800039dc:	8082                	ret
800039de:	00054783          	lbu	a5,0(a0)
800039e2:	feb78de3          	beq	a5,a1,800039dc <memchr+0xc>
800039e6:	0505                	addi	a0,a0,1
800039e8:	b7fd                	j	800039d6 <memchr+0x6>

800039ea <__malloc_lock>:
800039ea:	8082                	ret

800039ec <__malloc_unlock>:
800039ec:	8082                	ret

800039ee <_printf_common>:
800039ee:	7179                	addi	sp,sp,-48
800039f0:	cc52                	sw	s4,24(sp)
800039f2:	499c                	lw	a5,16(a1)
800039f4:	8a3a                	mv	s4,a4
800039f6:	4598                	lw	a4,8(a1)
800039f8:	d422                	sw	s0,40(sp)
800039fa:	d226                	sw	s1,36(sp)
800039fc:	ce4e                	sw	s3,28(sp)
800039fe:	ca56                	sw	s5,20(sp)
80003a00:	d606                	sw	ra,44(sp)
80003a02:	d04a                	sw	s2,32(sp)
80003a04:	c85a                	sw	s6,16(sp)
80003a06:	c65e                	sw	s7,12(sp)
80003a08:	89aa                	mv	s3,a0
80003a0a:	842e                	mv	s0,a1
80003a0c:	84b2                	mv	s1,a2
80003a0e:	8ab6                	mv	s5,a3
80003a10:	00e7d363          	bge	a5,a4,80003a16 <_printf_common+0x28>
80003a14:	87ba                	mv	a5,a4
80003a16:	c09c                	sw	a5,0(s1)
80003a18:	04344703          	lbu	a4,67(s0)
80003a1c:	c319                	beqz	a4,80003a22 <_printf_common+0x34>
80003a1e:	0785                	addi	a5,a5,1
80003a20:	c09c                	sw	a5,0(s1)
80003a22:	401c                	lw	a5,0(s0)
80003a24:	0207f793          	andi	a5,a5,32
80003a28:	c781                	beqz	a5,80003a30 <_printf_common+0x42>
80003a2a:	409c                	lw	a5,0(s1)
80003a2c:	0789                	addi	a5,a5,2
80003a2e:	c09c                	sw	a5,0(s1)
80003a30:	00042903          	lw	s2,0(s0)
80003a34:	00697913          	andi	s2,s2,6
80003a38:	00091a63          	bnez	s2,80003a4c <_printf_common+0x5e>
80003a3c:	01940b13          	addi	s6,s0,25
80003a40:	5bfd                	li	s7,-1
80003a42:	445c                	lw	a5,12(s0)
80003a44:	4098                	lw	a4,0(s1)
80003a46:	8f99                	sub	a5,a5,a4
80003a48:	04f94c63          	blt	s2,a5,80003aa0 <_printf_common+0xb2>
80003a4c:	04344783          	lbu	a5,67(s0)
80003a50:	00f036b3          	snez	a3,a5
80003a54:	401c                	lw	a5,0(s0)
80003a56:	0207f793          	andi	a5,a5,32
80003a5a:	eba5                	bnez	a5,80003aca <_printf_common+0xdc>
80003a5c:	04340613          	addi	a2,s0,67
80003a60:	85d6                	mv	a1,s5
80003a62:	854e                	mv	a0,s3
80003a64:	9a02                	jalr	s4
80003a66:	57fd                	li	a5,-1
80003a68:	04f50363          	beq	a0,a5,80003aae <_printf_common+0xc0>
80003a6c:	401c                	lw	a5,0(s0)
80003a6e:	4611                	li	a2,4
80003a70:	4098                	lw	a4,0(s1)
80003a72:	8b99                	andi	a5,a5,6
80003a74:	4454                	lw	a3,12(s0)
80003a76:	4481                	li	s1,0
80003a78:	00c79763          	bne	a5,a2,80003a86 <_printf_common+0x98>
80003a7c:	40e684b3          	sub	s1,a3,a4
80003a80:	0004d363          	bgez	s1,80003a86 <_printf_common+0x98>
80003a84:	4481                	li	s1,0
80003a86:	441c                	lw	a5,8(s0)
80003a88:	4818                	lw	a4,16(s0)
80003a8a:	00f75463          	bge	a4,a5,80003a92 <_printf_common+0xa4>
80003a8e:	8f99                	sub	a5,a5,a4
80003a90:	94be                	add	s1,s1,a5
80003a92:	4901                	li	s2,0
80003a94:	0469                	addi	s0,s0,26
80003a96:	5b7d                	li	s6,-1
80003a98:	05249863          	bne	s1,s2,80003ae8 <_printf_common+0xfa>
80003a9c:	4501                	li	a0,0
80003a9e:	a809                	j	80003ab0 <_printf_common+0xc2>
80003aa0:	4685                	li	a3,1
80003aa2:	865a                	mv	a2,s6
80003aa4:	85d6                	mv	a1,s5
80003aa6:	854e                	mv	a0,s3
80003aa8:	9a02                	jalr	s4
80003aaa:	01751e63          	bne	a0,s7,80003ac6 <_printf_common+0xd8>
80003aae:	557d                	li	a0,-1
80003ab0:	50b2                	lw	ra,44(sp)
80003ab2:	5422                	lw	s0,40(sp)
80003ab4:	5492                	lw	s1,36(sp)
80003ab6:	5902                	lw	s2,32(sp)
80003ab8:	49f2                	lw	s3,28(sp)
80003aba:	4a62                	lw	s4,24(sp)
80003abc:	4ad2                	lw	s5,20(sp)
80003abe:	4b42                	lw	s6,16(sp)
80003ac0:	4bb2                	lw	s7,12(sp)
80003ac2:	6145                	addi	sp,sp,48
80003ac4:	8082                	ret
80003ac6:	0905                	addi	s2,s2,1
80003ac8:	bfad                	j	80003a42 <_printf_common+0x54>
80003aca:	00d40733          	add	a4,s0,a3
80003ace:	03000613          	li	a2,48
80003ad2:	04c701a3          	sb	a2,67(a4) # fffff043 <_sp+0x6ffef043>
80003ad6:	04544703          	lbu	a4,69(s0)
80003ada:	00168793          	addi	a5,a3,1
80003ade:	97a2                	add	a5,a5,s0
80003ae0:	0689                	addi	a3,a3,2
80003ae2:	04e781a3          	sb	a4,67(a5) # 1043 <__stack_size+0x843>
80003ae6:	bf9d                	j	80003a5c <_printf_common+0x6e>
80003ae8:	4685                	li	a3,1
80003aea:	8622                	mv	a2,s0
80003aec:	85d6                	mv	a1,s5
80003aee:	854e                	mv	a0,s3
80003af0:	9a02                	jalr	s4
80003af2:	fb650ee3          	beq	a0,s6,80003aae <_printf_common+0xc0>
80003af6:	0905                	addi	s2,s2,1
80003af8:	b745                	j	80003a98 <_printf_common+0xaa>

80003afa <_printf_i>:
80003afa:	7179                	addi	sp,sp,-48
80003afc:	d422                	sw	s0,40(sp)
80003afe:	d226                	sw	s1,36(sp)
80003b00:	d04a                	sw	s2,32(sp)
80003b02:	ce4e                	sw	s3,28(sp)
80003b04:	d606                	sw	ra,44(sp)
80003b06:	cc52                	sw	s4,24(sp)
80003b08:	ca56                	sw	s5,20(sp)
80003b0a:	c85a                	sw	s6,16(sp)
80003b0c:	842e                	mv	s0,a1
80003b0e:	89b6                	mv	s3,a3
80003b10:	04358693          	addi	a3,a1,67
80003b14:	0185c583          	lbu	a1,24(a1)
80003b18:	07800793          	li	a5,120
80003b1c:	84aa                	mv	s1,a0
80003b1e:	8932                	mv	s2,a2
80003b20:	00b7ec63          	bltu	a5,a1,80003b38 <_printf_i+0x3e>
80003b24:	06200793          	li	a5,98
80003b28:	00b7ed63          	bltu	a5,a1,80003b42 <_printf_i+0x48>
80003b2c:	1c058663          	beqz	a1,80003cf8 <_printf_i+0x1fe>
80003b30:	05800793          	li	a5,88
80003b34:	12f58b63          	beq	a1,a5,80003c6a <_printf_i+0x170>
80003b38:	04240a93          	addi	s5,s0,66
80003b3c:	04b40123          	sb	a1,66(s0)
80003b40:	a815                	j	80003b74 <_printf_i+0x7a>
80003b42:	f9d58793          	addi	a5,a1,-99
80003b46:	0ff7f793          	andi	a5,a5,255
80003b4a:	4655                	li	a2,21
80003b4c:	fef666e3          	bltu	a2,a5,80003b38 <_printf_i+0x3e>
80003b50:	00000617          	auipc	a2,0x0
80003b54:	77c60613          	addi	a2,a2,1916 # 800042cc <__sf_fake_stdout+0x5c>
80003b58:	078a                	slli	a5,a5,0x2
80003b5a:	97b2                	add	a5,a5,a2
80003b5c:	439c                	lw	a5,0(a5)
80003b5e:	97b2                	add	a5,a5,a2
80003b60:	8782                	jr	a5
80003b62:	431c                	lw	a5,0(a4)
80003b64:	04240a93          	addi	s5,s0,66
80003b68:	00478693          	addi	a3,a5,4
80003b6c:	439c                	lw	a5,0(a5)
80003b6e:	c314                	sw	a3,0(a4)
80003b70:	04f40123          	sb	a5,66(s0)
80003b74:	4785                	li	a5,1
80003b76:	a26d                	j	80003d20 <_printf_i+0x226>
80003b78:	401c                	lw	a5,0(s0)
80003b7a:	4308                	lw	a0,0(a4)
80003b7c:	0807f613          	andi	a2,a5,128
80003b80:	00450593          	addi	a1,a0,4
80003b84:	c20d                	beqz	a2,80003ba6 <_printf_i+0xac>
80003b86:	411c                	lw	a5,0(a0)
80003b88:	c30c                	sw	a1,0(a4)
80003b8a:	0007d863          	bgez	a5,80003b9a <_printf_i+0xa0>
80003b8e:	02d00713          	li	a4,45
80003b92:	40f007b3          	neg	a5,a5
80003b96:	04e401a3          	sb	a4,67(s0)
80003b9a:	00000617          	auipc	a2,0x0
80003b9e:	70a60613          	addi	a2,a2,1802 # 800042a4 <__sf_fake_stdout+0x34>
80003ba2:	4729                	li	a4,10
80003ba4:	a0a9                	j	80003bee <_printf_i+0xf4>
80003ba6:	0407f613          	andi	a2,a5,64
80003baa:	411c                	lw	a5,0(a0)
80003bac:	c30c                	sw	a1,0(a4)
80003bae:	de71                	beqz	a2,80003b8a <_printf_i+0x90>
80003bb0:	07c2                	slli	a5,a5,0x10
80003bb2:	87c1                	srai	a5,a5,0x10
80003bb4:	bfd9                	j	80003b8a <_printf_i+0x90>
80003bb6:	4010                	lw	a2,0(s0)
80003bb8:	431c                	lw	a5,0(a4)
80003bba:	08067813          	andi	a6,a2,128
80003bbe:	00478513          	addi	a0,a5,4
80003bc2:	00080563          	beqz	a6,80003bcc <_printf_i+0xd2>
80003bc6:	c308                	sw	a0,0(a4)
80003bc8:	439c                	lw	a5,0(a5)
80003bca:	a039                	j	80003bd8 <_printf_i+0xde>
80003bcc:	04067613          	andi	a2,a2,64
80003bd0:	c308                	sw	a0,0(a4)
80003bd2:	da7d                	beqz	a2,80003bc8 <_printf_i+0xce>
80003bd4:	0007d783          	lhu	a5,0(a5)
80003bd8:	06f00713          	li	a4,111
80003bdc:	00000617          	auipc	a2,0x0
80003be0:	6c860613          	addi	a2,a2,1736 # 800042a4 <__sf_fake_stdout+0x34>
80003be4:	0ee58463          	beq	a1,a4,80003ccc <_printf_i+0x1d2>
80003be8:	4729                	li	a4,10
80003bea:	040401a3          	sb	zero,67(s0)
80003bee:	404c                	lw	a1,4(s0)
80003bf0:	c40c                	sw	a1,8(s0)
80003bf2:	0005c563          	bltz	a1,80003bfc <_printf_i+0x102>
80003bf6:	4008                	lw	a0,0(s0)
80003bf8:	996d                	andi	a0,a0,-5
80003bfa:	c008                	sw	a0,0(s0)
80003bfc:	e399                	bnez	a5,80003c02 <_printf_i+0x108>
80003bfe:	8ab6                	mv	s5,a3
80003c00:	cd99                	beqz	a1,80003c1e <_printf_i+0x124>
80003c02:	8ab6                	mv	s5,a3
80003c04:	02e7f5b3          	remu	a1,a5,a4
80003c08:	1afd                	addi	s5,s5,-1
80003c0a:	95b2                	add	a1,a1,a2
80003c0c:	0005c583          	lbu	a1,0(a1)
80003c10:	00ba8023          	sb	a1,0(s5)
80003c14:	85be                	mv	a1,a5
80003c16:	02e7d7b3          	divu	a5,a5,a4
80003c1a:	fee5f5e3          	bgeu	a1,a4,80003c04 <_printf_i+0x10a>
80003c1e:	47a1                	li	a5,8
80003c20:	00f71e63          	bne	a4,a5,80003c3c <_printf_i+0x142>
80003c24:	401c                	lw	a5,0(s0)
80003c26:	8b85                	andi	a5,a5,1
80003c28:	cb91                	beqz	a5,80003c3c <_printf_i+0x142>
80003c2a:	4058                	lw	a4,4(s0)
80003c2c:	481c                	lw	a5,16(s0)
80003c2e:	00e7c763          	blt	a5,a4,80003c3c <_printf_i+0x142>
80003c32:	03000793          	li	a5,48
80003c36:	fefa8fa3          	sb	a5,-1(s5)
80003c3a:	1afd                	addi	s5,s5,-1
80003c3c:	415686b3          	sub	a3,a3,s5
80003c40:	c814                	sw	a3,16(s0)
80003c42:	874e                	mv	a4,s3
80003c44:	86ca                	mv	a3,s2
80003c46:	0070                	addi	a2,sp,12
80003c48:	85a2                	mv	a1,s0
80003c4a:	8526                	mv	a0,s1
80003c4c:	334d                	jal	800039ee <_printf_common>
80003c4e:	5a7d                	li	s4,-1
80003c50:	0d451c63          	bne	a0,s4,80003d28 <_printf_i+0x22e>
80003c54:	557d                	li	a0,-1
80003c56:	50b2                	lw	ra,44(sp)
80003c58:	5422                	lw	s0,40(sp)
80003c5a:	5492                	lw	s1,36(sp)
80003c5c:	5902                	lw	s2,32(sp)
80003c5e:	49f2                	lw	s3,28(sp)
80003c60:	4a62                	lw	s4,24(sp)
80003c62:	4ad2                	lw	s5,20(sp)
80003c64:	4b42                	lw	s6,16(sp)
80003c66:	6145                	addi	sp,sp,48
80003c68:	8082                	ret
80003c6a:	04b402a3          	sb	a1,69(s0)
80003c6e:	00000617          	auipc	a2,0x0
80003c72:	63660613          	addi	a2,a2,1590 # 800042a4 <__sf_fake_stdout+0x34>
80003c76:	400c                	lw	a1,0(s0)
80003c78:	4308                	lw	a0,0(a4)
80003c7a:	0805f813          	andi	a6,a1,128
80003c7e:	411c                	lw	a5,0(a0)
80003c80:	0511                	addi	a0,a0,4
80003c82:	02080d63          	beqz	a6,80003cbc <_printf_i+0x1c2>
80003c86:	c308                	sw	a0,0(a4)
80003c88:	0015f713          	andi	a4,a1,1
80003c8c:	c701                	beqz	a4,80003c94 <_printf_i+0x19a>
80003c8e:	0205e593          	ori	a1,a1,32
80003c92:	c00c                	sw	a1,0(s0)
80003c94:	4741                	li	a4,16
80003c96:	fbb1                	bnez	a5,80003bea <_printf_i+0xf0>
80003c98:	400c                	lw	a1,0(s0)
80003c9a:	fdf5f593          	andi	a1,a1,-33
80003c9e:	c00c                	sw	a1,0(s0)
80003ca0:	b7a9                	j	80003bea <_printf_i+0xf0>
80003ca2:	401c                	lw	a5,0(s0)
80003ca4:	0207e793          	ori	a5,a5,32
80003ca8:	c01c                	sw	a5,0(s0)
80003caa:	07800793          	li	a5,120
80003cae:	04f402a3          	sb	a5,69(s0)
80003cb2:	00000617          	auipc	a2,0x0
80003cb6:	60660613          	addi	a2,a2,1542 # 800042b8 <__sf_fake_stdout+0x48>
80003cba:	bf75                	j	80003c76 <_printf_i+0x17c>
80003cbc:	0405f813          	andi	a6,a1,64
80003cc0:	c308                	sw	a0,0(a4)
80003cc2:	fc0803e3          	beqz	a6,80003c88 <_printf_i+0x18e>
80003cc6:	07c2                	slli	a5,a5,0x10
80003cc8:	83c1                	srli	a5,a5,0x10
80003cca:	bf7d                	j	80003c88 <_printf_i+0x18e>
80003ccc:	4721                	li	a4,8
80003cce:	bf31                	j	80003bea <_printf_i+0xf0>
80003cd0:	4010                	lw	a2,0(s0)
80003cd2:	431c                	lw	a5,0(a4)
80003cd4:	484c                	lw	a1,20(s0)
80003cd6:	08067813          	andi	a6,a2,128
80003cda:	00478513          	addi	a0,a5,4
80003cde:	00080663          	beqz	a6,80003cea <_printf_i+0x1f0>
80003ce2:	c308                	sw	a0,0(a4)
80003ce4:	439c                	lw	a5,0(a5)
80003ce6:	c38c                	sw	a1,0(a5)
80003ce8:	a801                	j	80003cf8 <_printf_i+0x1fe>
80003cea:	c308                	sw	a0,0(a4)
80003cec:	04067613          	andi	a2,a2,64
80003cf0:	439c                	lw	a5,0(a5)
80003cf2:	da75                	beqz	a2,80003ce6 <_printf_i+0x1ec>
80003cf4:	00b79023          	sh	a1,0(a5)
80003cf8:	00042823          	sw	zero,16(s0)
80003cfc:	8ab6                	mv	s5,a3
80003cfe:	b791                	j	80003c42 <_printf_i+0x148>
80003d00:	431c                	lw	a5,0(a4)
80003d02:	4050                	lw	a2,4(s0)
80003d04:	4581                	li	a1,0
80003d06:	00478693          	addi	a3,a5,4
80003d0a:	c314                	sw	a3,0(a4)
80003d0c:	0007aa83          	lw	s5,0(a5)
80003d10:	8556                	mv	a0,s5
80003d12:	cbfff0ef          	jal	ra,800039d0 <memchr>
80003d16:	c501                	beqz	a0,80003d1e <_printf_i+0x224>
80003d18:	41550533          	sub	a0,a0,s5
80003d1c:	c048                	sw	a0,4(s0)
80003d1e:	405c                	lw	a5,4(s0)
80003d20:	c81c                	sw	a5,16(s0)
80003d22:	040401a3          	sb	zero,67(s0)
80003d26:	bf31                	j	80003c42 <_printf_i+0x148>
80003d28:	4814                	lw	a3,16(s0)
80003d2a:	8656                	mv	a2,s5
80003d2c:	85ca                	mv	a1,s2
80003d2e:	8526                	mv	a0,s1
80003d30:	9982                	jalr	s3
80003d32:	f34501e3          	beq	a0,s4,80003c54 <_printf_i+0x15a>
80003d36:	401c                	lw	a5,0(s0)
80003d38:	8b89                	andi	a5,a5,2
80003d3a:	e78d                	bnez	a5,80003d64 <_printf_i+0x26a>
80003d3c:	47b2                	lw	a5,12(sp)
80003d3e:	4448                	lw	a0,12(s0)
80003d40:	f0f55be3          	bge	a0,a5,80003c56 <_printf_i+0x15c>
80003d44:	853e                	mv	a0,a5
80003d46:	bf01                	j	80003c56 <_printf_i+0x15c>
80003d48:	4685                	li	a3,1
80003d4a:	8656                	mv	a2,s5
80003d4c:	85ca                	mv	a1,s2
80003d4e:	8526                	mv	a0,s1
80003d50:	9982                	jalr	s3
80003d52:	f16501e3          	beq	a0,s6,80003c54 <_printf_i+0x15a>
80003d56:	0a05                	addi	s4,s4,1
80003d58:	445c                	lw	a5,12(s0)
80003d5a:	4732                	lw	a4,12(sp)
80003d5c:	8f99                	sub	a5,a5,a4
80003d5e:	fefa45e3          	blt	s4,a5,80003d48 <_printf_i+0x24e>
80003d62:	bfe9                	j	80003d3c <_printf_i+0x242>
80003d64:	4a01                	li	s4,0
80003d66:	01940a93          	addi	s5,s0,25
80003d6a:	5b7d                	li	s6,-1
80003d6c:	b7f5                	j	80003d58 <_printf_i+0x25e>

80003d6e <_read_r>:
80003d6e:	1141                	addi	sp,sp,-16
80003d70:	c422                	sw	s0,8(sp)
80003d72:	842a                	mv	s0,a0
80003d74:	852e                	mv	a0,a1
80003d76:	85b2                	mv	a1,a2
80003d78:	8636                	mv	a2,a3
80003d7a:	a001a823          	sw	zero,-1520(gp) # 90000270 <errno>
80003d7e:	c606                	sw	ra,12(sp)
80003d80:	bc8fc0ef          	jal	ra,80000148 <_read>
80003d84:	57fd                	li	a5,-1
80003d86:	00f51663          	bne	a0,a5,80003d92 <_read_r+0x24>
80003d8a:	a101a783          	lw	a5,-1520(gp) # 90000270 <errno>
80003d8e:	c391                	beqz	a5,80003d92 <_read_r+0x24>
80003d90:	c01c                	sw	a5,0(s0)
80003d92:	40b2                	lw	ra,12(sp)
80003d94:	4422                	lw	s0,8(sp)
80003d96:	0141                	addi	sp,sp,16
80003d98:	8082                	ret
