
test_e203hbridv2.elf:     file format elf32-littleriscv


Disassembly of section .init:

80000000 <_start>:
80000000:	30047073          	csrci	mstatus,8
80000004:	30405073          	csrwi	mie,0
80000008:	10001197          	auipc	gp,0x10001
8000000c:	85818193          	addi	gp,gp,-1960 # 90000860 <__global_pointer$>
80000010:	10010117          	auipc	sp,0x10010
80000014:	ff010113          	addi	sp,sp,-16 # 90010000 <_sp>
80000018:	00000297          	auipc	t0,0x0
8000001c:	34828293          	addi	t0,t0,840 # 80000360 <trap_entry>
80000020:	30529073          	csrw	mtvec,t0
80000024:	3051f073          	csrci	mtvec,3
80000028:	00000517          	auipc	a0,0x0
8000002c:	0a450513          	addi	a0,a0,164 # 800000cc <_ilm>
80000030:	00000597          	auipc	a1,0x0
80000034:	09c58593          	addi	a1,a1,156 # 800000cc <_ilm>
80000038:	02b50263          	beq	a0,a1,8000005c <_start+0x5c>
8000003c:	00005617          	auipc	a2,0x5
80000040:	dec60613          	addi	a2,a2,-532 # 80004e28 <__fsymtab_end>
80000044:	00c5fc63          	bgeu	a1,a2,8000005c <_start+0x5c>
80000048:	00052283          	lw	t0,0(a0)
8000004c:	0055a023          	sw	t0,0(a1)
80000050:	00450513          	addi	a0,a0,4
80000054:	00458593          	addi	a1,a1,4
80000058:	fec5e8e3          	bltu	a1,a2,80000048 <_start+0x48>
8000005c:	00005517          	auipc	a0,0x5
80000060:	dcc50513          	addi	a0,a0,-564 # 80004e28 <__fsymtab_end>
80000064:	10000597          	auipc	a1,0x10000
80000068:	f9c58593          	addi	a1,a1,-100 # 90000000 <_data>
8000006c:	81018613          	addi	a2,gp,-2032 # 90000070 <_global_atexit>
80000070:	00c5fc63          	bgeu	a1,a2,80000088 <_start+0x88>
80000074:	00052283          	lw	t0,0(a0)
80000078:	0055a023          	sw	t0,0(a1)
8000007c:	00450513          	addi	a0,a0,4
80000080:	00458593          	addi	a1,a1,4
80000084:	fec5e8e3          	bltu	a1,a2,80000074 <_start+0x74>
80000088:	81018513          	addi	a0,gp,-2032 # 90000070 <_global_atexit>
8000008c:	9f818593          	addi	a1,gp,-1544 # 90000258 <_end>
80000090:	00b57863          	bgeu	a0,a1,800000a0 <_start+0xa0>
80000094:	00052023          	sw	zero,0(a0)
80000098:	00450513          	addi	a0,a0,4
8000009c:	feb56ce3          	bltu	a0,a1,80000094 <_start+0x94>
800000a0:	7c4000ef          	jal	ra,80000864 <SystemInit>
800000a4:	00003517          	auipc	a0,0x3
800000a8:	92c50513          	addi	a0,a0,-1748 # 800029d0 <__libc_fini_array>
800000ac:	111020ef          	jal	ra,800029bc <atexit>
800000b0:	17d020ef          	jal	ra,80002a2c <__libc_init_array>
800000b4:	451000ef          	jal	ra,80000d04 <_premain_init>
800000b8:	00000513          	li	a0,0
800000bc:	00000593          	li	a1,0
800000c0:	254010ef          	jal	ra,80001314 <main>
800000c4:	5b9000ef          	jal	ra,80000e7c <_postmain_fini>
800000c8:	0000006f          	j	800000c8 <_start+0xc8>

Disassembly of section .text:

800000cc <_close>:
800000cc:	fe010113          	addi	sp,sp,-32
800000d0:	00812e23          	sw	s0,28(sp)
800000d4:	02010413          	addi	s0,sp,32
800000d8:	fea42623          	sw	a0,-20(s0)
800000dc:	9f018793          	addi	a5,gp,-1552 # 90000250 <errno>
800000e0:	00900713          	li	a4,9
800000e4:	00e7a023          	sw	a4,0(a5)
800000e8:	fff00793          	li	a5,-1
800000ec:	00078513          	mv	a0,a5
800000f0:	01c12403          	lw	s0,28(sp)
800000f4:	02010113          	addi	sp,sp,32
800000f8:	00008067          	ret

800000fc <_fstat>:
800000fc:	fe010113          	addi	sp,sp,-32
80000100:	00812e23          	sw	s0,28(sp)
80000104:	02010413          	addi	s0,sp,32
80000108:	fea42623          	sw	a0,-20(s0)
8000010c:	feb42423          	sw	a1,-24(s0)
80000110:	fec42703          	lw	a4,-20(s0)
80000114:	00100793          	li	a5,1
80000118:	00f70863          	beq	a4,a5,80000128 <_fstat+0x2c>
8000011c:	fec42703          	lw	a4,-20(s0)
80000120:	00200793          	li	a5,2
80000124:	00f71c63          	bne	a4,a5,8000013c <_fstat+0x40>
80000128:	fe842783          	lw	a5,-24(s0)
8000012c:	00002737          	lui	a4,0x2
80000130:	00e7a223          	sw	a4,4(a5)
80000134:	00000793          	li	a5,0
80000138:	0140006f          	j	8000014c <_fstat+0x50>
8000013c:	9f018793          	addi	a5,gp,-1552 # 90000250 <errno>
80000140:	00900713          	li	a4,9
80000144:	00e7a023          	sw	a4,0(a5)
80000148:	fff00793          	li	a5,-1
8000014c:	00078513          	mv	a0,a5
80000150:	01c12403          	lw	s0,28(sp)
80000154:	02010113          	addi	sp,sp,32
80000158:	00008067          	ret

8000015c <_isatty>:
8000015c:	fe010113          	addi	sp,sp,-32
80000160:	00812e23          	sw	s0,28(sp)
80000164:	02010413          	addi	s0,sp,32
80000168:	fea42623          	sw	a0,-20(s0)
8000016c:	00100793          	li	a5,1
80000170:	00078513          	mv	a0,a5
80000174:	01c12403          	lw	s0,28(sp)
80000178:	02010113          	addi	sp,sp,32
8000017c:	00008067          	ret

80000180 <_lseek>:
80000180:	fe010113          	addi	sp,sp,-32
80000184:	00812e23          	sw	s0,28(sp)
80000188:	02010413          	addi	s0,sp,32
8000018c:	fea42623          	sw	a0,-20(s0)
80000190:	feb42423          	sw	a1,-24(s0)
80000194:	fec42223          	sw	a2,-28(s0)
80000198:	00000793          	li	a5,0
8000019c:	00078513          	mv	a0,a5
800001a0:	01c12403          	lw	s0,28(sp)
800001a4:	02010113          	addi	sp,sp,32
800001a8:	00008067          	ret

800001ac <_read>:
800001ac:	fd010113          	addi	sp,sp,-48
800001b0:	02112623          	sw	ra,44(sp)
800001b4:	02812423          	sw	s0,40(sp)
800001b8:	03010413          	addi	s0,sp,48
800001bc:	fca42e23          	sw	a0,-36(s0)
800001c0:	fcb42c23          	sw	a1,-40(s0)
800001c4:	fcc42a23          	sw	a2,-44(s0)
800001c8:	fdc42783          	lw	a5,-36(s0)
800001cc:	00078663          	beqz	a5,800001d8 <_read+0x2c>
800001d0:	fff00793          	li	a5,-1
800001d4:	0280006f          	j	800001fc <_read+0x50>
800001d8:	fd842783          	lw	a5,-40(s0)
800001dc:	fef42623          	sw	a5,-20(s0)
800001e0:	10013537          	lui	a0,0x10013
800001e4:	3bc000ef          	jal	ra,800005a0 <uart_read>
800001e8:	00050793          	mv	a5,a0
800001ec:	00078713          	mv	a4,a5
800001f0:	fec42783          	lw	a5,-20(s0)
800001f4:	00e78023          	sb	a4,0(a5)
800001f8:	00100793          	li	a5,1
800001fc:	00078513          	mv	a0,a5
80000200:	02c12083          	lw	ra,44(sp)
80000204:	02812403          	lw	s0,40(sp)
80000208:	03010113          	addi	sp,sp,48
8000020c:	00008067          	ret

80000210 <_sbrk>:
80000210:	fe010113          	addi	sp,sp,-32
80000214:	00812e23          	sw	s0,28(sp)
80000218:	02010413          	addi	s0,sp,32
8000021c:	fea42623          	sw	a0,-20(s0)
80000220:	10000797          	auipc	a5,0x10000
80000224:	e4078793          	addi	a5,a5,-448 # 90000060 <curbrk.2850>
80000228:	0007a703          	lw	a4,0(a5)
8000022c:	fec42783          	lw	a5,-20(s0)
80000230:	00f70733          	add	a4,a4,a5
80000234:	9f818793          	addi	a5,gp,-1544 # 90000258 <_end>
80000238:	02f76263          	bltu	a4,a5,8000025c <_sbrk+0x4c>
8000023c:	10000797          	auipc	a5,0x10000
80000240:	e2478793          	addi	a5,a5,-476 # 90000060 <curbrk.2850>
80000244:	0007a703          	lw	a4,0(a5)
80000248:	fec42783          	lw	a5,-20(s0)
8000024c:	00f70733          	add	a4,a4,a5
80000250:	1000f797          	auipc	a5,0x1000f
80000254:	5b078793          	addi	a5,a5,1456 # 9000f800 <_heap_end>
80000258:	00e7f663          	bgeu	a5,a4,80000264 <_sbrk+0x54>
8000025c:	fff00793          	li	a5,-1
80000260:	03c0006f          	j	8000029c <_sbrk+0x8c>
80000264:	10000797          	auipc	a5,0x10000
80000268:	dfc78793          	addi	a5,a5,-516 # 90000060 <curbrk.2850>
8000026c:	0007a703          	lw	a4,0(a5)
80000270:	fec42783          	lw	a5,-20(s0)
80000274:	00f70733          	add	a4,a4,a5
80000278:	10000797          	auipc	a5,0x10000
8000027c:	de878793          	addi	a5,a5,-536 # 90000060 <curbrk.2850>
80000280:	00e7a023          	sw	a4,0(a5)
80000284:	10000797          	auipc	a5,0x10000
80000288:	ddc78793          	addi	a5,a5,-548 # 90000060 <curbrk.2850>
8000028c:	0007a703          	lw	a4,0(a5)
80000290:	fec42783          	lw	a5,-20(s0)
80000294:	40f007b3          	neg	a5,a5
80000298:	00f707b3          	add	a5,a4,a5
8000029c:	00078513          	mv	a0,a5
800002a0:	01c12403          	lw	s0,28(sp)
800002a4:	02010113          	addi	sp,sp,32
800002a8:	00008067          	ret

800002ac <_write>:
800002ac:	fd010113          	addi	sp,sp,-48
800002b0:	02112623          	sw	ra,44(sp)
800002b4:	02812423          	sw	s0,40(sp)
800002b8:	03010413          	addi	s0,sp,48
800002bc:	fca42e23          	sw	a0,-36(s0)
800002c0:	fcb42c23          	sw	a1,-40(s0)
800002c4:	fcc42a23          	sw	a2,-44(s0)
800002c8:	fdc42503          	lw	a0,-36(s0)
800002cc:	2ed020ef          	jal	ra,80002db8 <isatty>
800002d0:	00050793          	mv	a5,a0
800002d4:	00079663          	bnez	a5,800002e0 <_write+0x34>
800002d8:	fff00793          	li	a5,-1
800002dc:	0700006f          	j	8000034c <_write+0xa0>
800002e0:	fd842783          	lw	a5,-40(s0)
800002e4:	fef42423          	sw	a5,-24(s0)
800002e8:	fe042623          	sw	zero,-20(s0)
800002ec:	0500006f          	j	8000033c <_write+0x90>
800002f0:	fe842703          	lw	a4,-24(s0)
800002f4:	fec42783          	lw	a5,-20(s0)
800002f8:	00f707b3          	add	a5,a4,a5
800002fc:	0007c703          	lbu	a4,0(a5)
80000300:	00a00793          	li	a5,10
80000304:	00f71863          	bne	a4,a5,80000314 <_write+0x68>
80000308:	00d00593          	li	a1,13
8000030c:	10013537          	lui	a0,0x10013
80000310:	22c000ef          	jal	ra,8000053c <uart_write>
80000314:	fe842703          	lw	a4,-24(s0)
80000318:	fec42783          	lw	a5,-20(s0)
8000031c:	00f707b3          	add	a5,a4,a5
80000320:	0007c783          	lbu	a5,0(a5)
80000324:	00078593          	mv	a1,a5
80000328:	10013537          	lui	a0,0x10013
8000032c:	210000ef          	jal	ra,8000053c <uart_write>
80000330:	fec42783          	lw	a5,-20(s0)
80000334:	00178793          	addi	a5,a5,1
80000338:	fef42623          	sw	a5,-20(s0)
8000033c:	fec42703          	lw	a4,-20(s0)
80000340:	fd442783          	lw	a5,-44(s0)
80000344:	faf766e3          	bltu	a4,a5,800002f0 <_write+0x44>
80000348:	fd442783          	lw	a5,-44(s0)
8000034c:	00078513          	mv	a0,a5
80000350:	02c12083          	lw	ra,44(sp)
80000354:	02812403          	lw	s0,40(sp)
80000358:	03010113          	addi	sp,sp,48
8000035c:	00008067          	ret

80000360 <trap_entry>:
80000360:	fb010113          	addi	sp,sp,-80
80000364:	00112023          	sw	ra,0(sp)
80000368:	00412223          	sw	tp,4(sp)
8000036c:	00512423          	sw	t0,8(sp)
80000370:	00612623          	sw	t1,12(sp)
80000374:	00712823          	sw	t2,16(sp)
80000378:	00a12a23          	sw	a0,20(sp)
8000037c:	00b12c23          	sw	a1,24(sp)
80000380:	00c12e23          	sw	a2,28(sp)
80000384:	02d12023          	sw	a3,32(sp)
80000388:	02e12223          	sw	a4,36(sp)
8000038c:	02f12423          	sw	a5,40(sp)
80000390:	03012c23          	sw	a6,56(sp)
80000394:	03112e23          	sw	a7,60(sp)
80000398:	05c12023          	sw	t3,64(sp)
8000039c:	05d12223          	sw	t4,68(sp)
800003a0:	05e12423          	sw	t5,72(sp)
800003a4:	05f12623          	sw	t6,76(sp)
800003a8:	341022f3          	csrr	t0,mepc
800003ac:	02512623          	sw	t0,44(sp)
800003b0:	342022f3          	csrr	t0,mcause
800003b4:	02512823          	sw	t0,48(sp)
800003b8:	300022f3          	csrr	t0,mstatus
800003bc:	02512a23          	sw	t0,52(sp)
800003c0:	34202573          	csrr	a0,mcause
800003c4:	00010593          	mv	a1,sp
800003c8:	6b8000ef          	jal	ra,80000a80 <core_trap_handler>
800003cc:	02c12283          	lw	t0,44(sp)
800003d0:	34129073          	csrw	mepc,t0
800003d4:	03012283          	lw	t0,48(sp)
800003d8:	34229073          	csrw	mcause,t0
800003dc:	03412283          	lw	t0,52(sp)
800003e0:	30029073          	csrw	mstatus,t0
800003e4:	00012083          	lw	ra,0(sp)
800003e8:	00412203          	lw	tp,4(sp)
800003ec:	00812283          	lw	t0,8(sp)
800003f0:	00c12303          	lw	t1,12(sp)
800003f4:	01012383          	lw	t2,16(sp)
800003f8:	01412503          	lw	a0,20(sp)
800003fc:	01812583          	lw	a1,24(sp)
80000400:	01c12603          	lw	a2,28(sp)
80000404:	02012683          	lw	a3,32(sp)
80000408:	02412703          	lw	a4,36(sp)
8000040c:	02812783          	lw	a5,40(sp)
80000410:	03812803          	lw	a6,56(sp)
80000414:	03c12883          	lw	a7,60(sp)
80000418:	04012e03          	lw	t3,64(sp)
8000041c:	04412e83          	lw	t4,68(sp)
80000420:	04812f03          	lw	t5,72(sp)
80000424:	04c12f83          	lw	t6,76(sp)
80000428:	05010113          	addi	sp,sp,80
8000042c:	30200073          	mret

80000430 <gpio_iof_config>:
80000430:	fe010113          	addi	sp,sp,-32
80000434:	00812e23          	sw	s0,28(sp)
80000438:	02010413          	addi	s0,sp,32
8000043c:	fea42623          	sw	a0,-20(s0)
80000440:	feb42423          	sw	a1,-24(s0)
80000444:	fec42783          	lw	a5,-20(s0)
80000448:	0017b793          	seqz	a5,a5
8000044c:	0ff7f793          	andi	a5,a5,255
80000450:	00078663          	beqz	a5,8000045c <gpio_iof_config+0x2c>
80000454:	fff00793          	li	a5,-1
80000458:	0200006f          	j	80000478 <gpio_iof_config+0x48>
8000045c:	fec42783          	lw	a5,-20(s0)
80000460:	01c7a703          	lw	a4,28(a5)
80000464:	fe842783          	lw	a5,-24(s0)
80000468:	00f76733          	or	a4,a4,a5
8000046c:	fec42783          	lw	a5,-20(s0)
80000470:	00e7ae23          	sw	a4,28(a5)
80000474:	00000793          	li	a5,0
80000478:	00078513          	mv	a0,a5
8000047c:	01c12403          	lw	s0,28(sp)
80000480:	02010113          	addi	sp,sp,32
80000484:	00008067          	ret

80000488 <uart_init>:
80000488:	fd010113          	addi	sp,sp,-48
8000048c:	02112623          	sw	ra,44(sp)
80000490:	02812423          	sw	s0,40(sp)
80000494:	03010413          	addi	s0,sp,48
80000498:	fca42e23          	sw	a0,-36(s0)
8000049c:	fcb42c23          	sw	a1,-40(s0)
800004a0:	fdc42783          	lw	a5,-36(s0)
800004a4:	0017b793          	seqz	a5,a5
800004a8:	0ff7f793          	andi	a5,a5,255
800004ac:	00078663          	beqz	a5,800004b8 <uart_init+0x30>
800004b0:	fff00793          	li	a5,-1
800004b4:	0740006f          	j	80000528 <uart_init+0xa0>
800004b8:	10000797          	auipc	a5,0x10000
800004bc:	bac78793          	addi	a5,a5,-1108 # 90000064 <SystemCoreClock>
800004c0:	0007a783          	lw	a5,0(a5)
800004c4:	fd842583          	lw	a1,-40(s0)
800004c8:	00078513          	mv	a0,a5
800004cc:	444020ef          	jal	ra,80002910 <__udivsi3>
800004d0:	00050793          	mv	a5,a0
800004d4:	fff78793          	addi	a5,a5,-1
800004d8:	fef42623          	sw	a5,-20(s0)
800004dc:	fdc42783          	lw	a5,-36(s0)
800004e0:	08000713          	li	a4,128
800004e4:	00e7a623          	sw	a4,12(a5)
800004e8:	fec42783          	lw	a5,-20(s0)
800004ec:	0087d793          	srli	a5,a5,0x8
800004f0:	0ff7f713          	andi	a4,a5,255
800004f4:	fdc42783          	lw	a5,-36(s0)
800004f8:	00e7a223          	sw	a4,4(a5)
800004fc:	fec42783          	lw	a5,-20(s0)
80000500:	0ff7f713          	andi	a4,a5,255
80000504:	fdc42783          	lw	a5,-36(s0)
80000508:	00e7a023          	sw	a4,0(a5)
8000050c:	fdc42783          	lw	a5,-36(s0)
80000510:	0c600713          	li	a4,198
80000514:	00e7a423          	sw	a4,8(a5)
80000518:	fdc42783          	lw	a5,-36(s0)
8000051c:	00300713          	li	a4,3
80000520:	00e7a623          	sw	a4,12(a5)
80000524:	00000793          	li	a5,0
80000528:	00078513          	mv	a0,a5
8000052c:	02c12083          	lw	ra,44(sp)
80000530:	02812403          	lw	s0,40(sp)
80000534:	03010113          	addi	sp,sp,48
80000538:	00008067          	ret

8000053c <uart_write>:
8000053c:	fe010113          	addi	sp,sp,-32
80000540:	00812e23          	sw	s0,28(sp)
80000544:	02010413          	addi	s0,sp,32
80000548:	fea42623          	sw	a0,-20(s0)
8000054c:	00058793          	mv	a5,a1
80000550:	fef405a3          	sb	a5,-21(s0)
80000554:	fec42783          	lw	a5,-20(s0)
80000558:	0017b793          	seqz	a5,a5
8000055c:	0ff7f793          	andi	a5,a5,255
80000560:	00078663          	beqz	a5,8000056c <uart_write+0x30>
80000564:	fff00793          	li	a5,-1
80000568:	0280006f          	j	80000590 <uart_write+0x54>
8000056c:	00000013          	nop
80000570:	fec42783          	lw	a5,-20(s0)
80000574:	0147a783          	lw	a5,20(a5)
80000578:	0207f793          	andi	a5,a5,32
8000057c:	fe078ae3          	beqz	a5,80000570 <uart_write+0x34>
80000580:	feb44703          	lbu	a4,-21(s0)
80000584:	fec42783          	lw	a5,-20(s0)
80000588:	00e7a023          	sw	a4,0(a5)
8000058c:	00000793          	li	a5,0
80000590:	00078513          	mv	a0,a5
80000594:	01c12403          	lw	s0,28(sp)
80000598:	02010113          	addi	sp,sp,32
8000059c:	00008067          	ret

800005a0 <uart_read>:
800005a0:	fd010113          	addi	sp,sp,-48
800005a4:	02812623          	sw	s0,44(sp)
800005a8:	03010413          	addi	s0,sp,48
800005ac:	fca42e23          	sw	a0,-36(s0)
800005b0:	fdc42783          	lw	a5,-36(s0)
800005b4:	0017b793          	seqz	a5,a5
800005b8:	0ff7f793          	andi	a5,a5,255
800005bc:	00078663          	beqz	a5,800005c8 <uart_read+0x28>
800005c0:	0ff00793          	li	a5,255
800005c4:	02c0006f          	j	800005f0 <uart_read+0x50>
800005c8:	00000013          	nop
800005cc:	fdc42783          	lw	a5,-36(s0)
800005d0:	0147a783          	lw	a5,20(a5)
800005d4:	0017f793          	andi	a5,a5,1
800005d8:	fe078ae3          	beqz	a5,800005cc <uart_read+0x2c>
800005dc:	fdc42783          	lw	a5,-36(s0)
800005e0:	0007a783          	lw	a5,0(a5)
800005e4:	fef42623          	sw	a5,-20(s0)
800005e8:	fec42783          	lw	a5,-20(s0)
800005ec:	0ff7f793          	andi	a5,a5,255
800005f0:	00078513          	mv	a0,a5
800005f4:	02c12403          	lw	s0,44(sp)
800005f8:	03010113          	addi	sp,sp,48
800005fc:	00008067          	ret

80000600 <get_timer_freq>:
80000600:	ff010113          	addi	sp,sp,-16
80000604:	00812623          	sw	s0,12(sp)
80000608:	01010413          	addi	s0,sp,16
8000060c:	000087b7          	lui	a5,0x8
80000610:	00078513          	mv	a0,a5
80000614:	00c12403          	lw	s0,12(sp)
80000618:	01010113          	addi	sp,sp,16
8000061c:	00008067          	ret

80000620 <measure_cpu_freq>:
80000620:	fc010113          	addi	sp,sp,-64
80000624:	02112e23          	sw	ra,60(sp)
80000628:	02812c23          	sw	s0,56(sp)
8000062c:	02912a23          	sw	s1,52(sp)
80000630:	04010413          	addi	s0,sp,64
80000634:	fca42623          	sw	a0,-52(s0)
80000638:	fc9ff0ef          	jal	ra,80000600 <get_timer_freq>
8000063c:	fea42623          	sw	a0,-20(s0)
80000640:	02000737          	lui	a4,0x2000
80000644:	0000c7b7          	lui	a5,0xc
80000648:	00f707b3          	add	a5,a4,a5
8000064c:	ff87a703          	lw	a4,-8(a5) # bff8 <__stack_size+0xb7f8>
80000650:	ffc7a783          	lw	a5,-4(a5)
80000654:	fee42423          	sw	a4,-24(s0)
80000658:	02000737          	lui	a4,0x2000
8000065c:	0000c7b7          	lui	a5,0xc
80000660:	00f707b3          	add	a5,a4,a5
80000664:	ff87a703          	lw	a4,-8(a5) # bff8 <__stack_size+0xb7f8>
80000668:	ffc7a783          	lw	a5,-4(a5)
8000066c:	fee42223          	sw	a4,-28(s0)
80000670:	b00027f3          	csrr	a5,mcycle
80000674:	00078093          	mv	ra,a5
80000678:	00008793          	mv	a5,ra
8000067c:	fef42023          	sw	a5,-32(s0)
80000680:	fe442703          	lw	a4,-28(s0)
80000684:	fe842783          	lw	a5,-24(s0)
80000688:	fcf708e3          	beq	a4,a5,80000658 <measure_cpu_freq+0x38>
8000068c:	02000737          	lui	a4,0x2000
80000690:	0000c7b7          	lui	a5,0xc
80000694:	00f707b3          	add	a5,a4,a5
80000698:	ff87a703          	lw	a4,-8(a5) # bff8 <__stack_size+0xb7f8>
8000069c:	ffc7a783          	lw	a5,-4(a5)
800006a0:	fe442783          	lw	a5,-28(s0)
800006a4:	40f707b3          	sub	a5,a4,a5
800006a8:	fcf42e23          	sw	a5,-36(s0)
800006ac:	b00027f3          	csrr	a5,mcycle
800006b0:	00078093          	mv	ra,a5
800006b4:	00008713          	mv	a4,ra
800006b8:	fe042783          	lw	a5,-32(s0)
800006bc:	40f707b3          	sub	a5,a4,a5
800006c0:	fcf42c23          	sw	a5,-40(s0)
800006c4:	fdc42703          	lw	a4,-36(s0)
800006c8:	fcc42783          	lw	a5,-52(s0)
800006cc:	fcf760e3          	bltu	a4,a5,8000068c <measure_cpu_freq+0x6c>
800006d0:	fdc42583          	lw	a1,-36(s0)
800006d4:	fd842503          	lw	a0,-40(s0)
800006d8:	238020ef          	jal	ra,80002910 <__udivsi3>
800006dc:	00050793          	mv	a5,a0
800006e0:	fec42583          	lw	a1,-20(s0)
800006e4:	00078513          	mv	a0,a5
800006e8:	1fc020ef          	jal	ra,800028e4 <__mulsi3>
800006ec:	00050793          	mv	a5,a0
800006f0:	00078493          	mv	s1,a5
800006f4:	fd842783          	lw	a5,-40(s0)
800006f8:	fdc42583          	lw	a1,-36(s0)
800006fc:	00078513          	mv	a0,a5
80000700:	258020ef          	jal	ra,80002958 <__umodsi3>
80000704:	00050793          	mv	a5,a0
80000708:	fec42583          	lw	a1,-20(s0)
8000070c:	00078513          	mv	a0,a5
80000710:	1d4020ef          	jal	ra,800028e4 <__mulsi3>
80000714:	00050793          	mv	a5,a0
80000718:	fdc42583          	lw	a1,-36(s0)
8000071c:	00078513          	mv	a0,a5
80000720:	1f0020ef          	jal	ra,80002910 <__udivsi3>
80000724:	00050793          	mv	a5,a0
80000728:	00f487b3          	add	a5,s1,a5
8000072c:	00078513          	mv	a0,a5
80000730:	03c12083          	lw	ra,60(sp)
80000734:	03812403          	lw	s0,56(sp)
80000738:	03412483          	lw	s1,52(sp)
8000073c:	04010113          	addi	sp,sp,64
80000740:	00008067          	ret

80000744 <get_cpu_freq>:
80000744:	fe010113          	addi	sp,sp,-32
80000748:	00112e23          	sw	ra,28(sp)
8000074c:	00812c23          	sw	s0,24(sp)
80000750:	02010413          	addi	s0,sp,32
80000754:	00100513          	li	a0,1
80000758:	ec9ff0ef          	jal	ra,80000620 <measure_cpu_freq>
8000075c:	06400513          	li	a0,100
80000760:	ec1ff0ef          	jal	ra,80000620 <measure_cpu_freq>
80000764:	fea42623          	sw	a0,-20(s0)
80000768:	fec42783          	lw	a5,-20(s0)
8000076c:	00078513          	mv	a0,a5
80000770:	01c12083          	lw	ra,28(sp)
80000774:	01812403          	lw	s0,24(sp)
80000778:	02010113          	addi	sp,sp,32
8000077c:	00008067          	ret

80000780 <delay_1ms>:
80000780:	fc010113          	addi	sp,sp,-64
80000784:	02112e23          	sw	ra,60(sp)
80000788:	02812c23          	sw	s0,56(sp)
8000078c:	04010413          	addi	s0,sp,64
80000790:	fca42623          	sw	a0,-52(s0)
80000794:	fcc42783          	lw	a5,-52(s0)
80000798:	00078613          	mv	a2,a5
8000079c:	00000693          	li	a3,0
800007a0:	01165793          	srli	a5,a2,0x11
800007a4:	00f69893          	slli	a7,a3,0xf
800007a8:	0117e8b3          	or	a7,a5,a7
800007ac:	00f61813          	slli	a6,a2,0xf
800007b0:	3e800613          	li	a2,1000
800007b4:	00000693          	li	a3,0
800007b8:	00080513          	mv	a0,a6
800007bc:	00088593          	mv	a1,a7
800007c0:	34d010ef          	jal	ra,8000230c <__udivdi3>
800007c4:	00050713          	mv	a4,a0
800007c8:	00058793          	mv	a5,a1
800007cc:	fee42423          	sw	a4,-24(s0)
800007d0:	fef42623          	sw	a5,-20(s0)
800007d4:	02000737          	lui	a4,0x2000
800007d8:	0000c7b7          	lui	a5,0xc
800007dc:	00f707b3          	add	a5,a4,a5
800007e0:	ff87a703          	lw	a4,-8(a5) # bff8 <__stack_size+0xb7f8>
800007e4:	ffc7a783          	lw	a5,-4(a5)
800007e8:	fee42023          	sw	a4,-32(s0)
800007ec:	fef42223          	sw	a5,-28(s0)
800007f0:	02000737          	lui	a4,0x2000
800007f4:	0000c7b7          	lui	a5,0xc
800007f8:	00f707b3          	add	a5,a4,a5
800007fc:	ff87a803          	lw	a6,-8(a5) # bff8 <__stack_size+0xb7f8>
80000800:	ffc7a883          	lw	a7,-4(a5)
80000804:	fe042503          	lw	a0,-32(s0)
80000808:	fe442583          	lw	a1,-28(s0)
8000080c:	40a80633          	sub	a2,a6,a0
80000810:	00060793          	mv	a5,a2
80000814:	00f837b3          	sltu	a5,a6,a5
80000818:	40b886b3          	sub	a3,a7,a1
8000081c:	40f687b3          	sub	a5,a3,a5
80000820:	00078693          	mv	a3,a5
80000824:	fcc42c23          	sw	a2,-40(s0)
80000828:	fcd42e23          	sw	a3,-36(s0)
8000082c:	fec42703          	lw	a4,-20(s0)
80000830:	fdc42783          	lw	a5,-36(s0)
80000834:	fae7eee3          	bltu	a5,a4,800007f0 <delay_1ms+0x70>
80000838:	fec42703          	lw	a4,-20(s0)
8000083c:	fdc42783          	lw	a5,-36(s0)
80000840:	00f71863          	bne	a4,a5,80000850 <delay_1ms+0xd0>
80000844:	fe842703          	lw	a4,-24(s0)
80000848:	fd842783          	lw	a5,-40(s0)
8000084c:	fae7e2e3          	bltu	a5,a4,800007f0 <delay_1ms+0x70>
80000850:	00000013          	nop
80000854:	03c12083          	lw	ra,60(sp)
80000858:	03812403          	lw	s0,56(sp)
8000085c:	04010113          	addi	sp,sp,64
80000860:	00008067          	ret

80000864 <SystemInit>:
80000864:	ff010113          	addi	sp,sp,-16
80000868:	00812623          	sw	s0,12(sp)
8000086c:	01010413          	addi	s0,sp,16
80000870:	0ffff797          	auipc	a5,0xffff
80000874:	7f478793          	addi	a5,a5,2036 # 90000064 <SystemCoreClock>
80000878:	04c4b737          	lui	a4,0x4c4b
8000087c:	40070713          	addi	a4,a4,1024 # 4c4b400 <__stack_size+0x4c4ac00>
80000880:	00e7a023          	sw	a4,0(a5)
80000884:	00000013          	nop
80000888:	00c12403          	lw	s0,12(sp)
8000088c:	01010113          	addi	sp,sp,16
80000890:	00008067          	ret

80000894 <system_default_exception_handler>:
80000894:	fe010113          	addi	sp,sp,-32
80000898:	00112e23          	sw	ra,28(sp)
8000089c:	00812c23          	sw	s0,24(sp)
800008a0:	02010413          	addi	s0,sp,32
800008a4:	fea42623          	sw	a0,-20(s0)
800008a8:	feb42423          	sw	a1,-24(s0)
800008ac:	00004517          	auipc	a0,0x4
800008b0:	02c50513          	addi	a0,a0,44 # 800048d8 <_read_r+0x48>
800008b4:	4f8020ef          	jal	ra,80002dac <puts>
800008b8:	fec42583          	lw	a1,-20(s0)
800008bc:	00004517          	auipc	a0,0x4
800008c0:	03050513          	addi	a0,a0,48 # 800048ec <_read_r+0x5c>
800008c4:	210020ef          	jal	ra,80002ad4 <iprintf>
800008c8:	341027f3          	csrr	a5,mepc
800008cc:	00078093          	mv	ra,a5
800008d0:	00008793          	mv	a5,ra
800008d4:	00078593          	mv	a1,a5
800008d8:	00004517          	auipc	a0,0x4
800008dc:	02450513          	addi	a0,a0,36 # 800048fc <_read_r+0x6c>
800008e0:	1f4020ef          	jal	ra,80002ad4 <iprintf>
800008e4:	343027f3          	csrr	a5,mtval
800008e8:	00078093          	mv	ra,a5
800008ec:	00008793          	mv	a5,ra
800008f0:	00078593          	mv	a1,a5
800008f4:	00004517          	auipc	a0,0x4
800008f8:	01850513          	addi	a0,a0,24 # 8000490c <_read_r+0x7c>
800008fc:	1d8020ef          	jal	ra,80002ad4 <iprintf>
80000900:	0000006f          	j	80000900 <system_default_exception_handler+0x6c>

80000904 <system_default_interrupt_handler>:
80000904:	fe010113          	addi	sp,sp,-32
80000908:	00112e23          	sw	ra,28(sp)
8000090c:	00812c23          	sw	s0,24(sp)
80000910:	02010413          	addi	s0,sp,32
80000914:	fea42623          	sw	a0,-20(s0)
80000918:	feb42423          	sw	a1,-24(s0)
8000091c:	00004517          	auipc	a0,0x4
80000920:	00050513          	mv	a0,a0
80000924:	488020ef          	jal	ra,80002dac <puts>
80000928:	fec42583          	lw	a1,-20(s0)
8000092c:	00004517          	auipc	a0,0x4
80000930:	fc050513          	addi	a0,a0,-64 # 800048ec <_read_r+0x5c>
80000934:	1a0020ef          	jal	ra,80002ad4 <iprintf>
80000938:	341027f3          	csrr	a5,mepc
8000093c:	00078093          	mv	ra,a5
80000940:	00008793          	mv	a5,ra
80000944:	00078593          	mv	a1,a5
80000948:	00004517          	auipc	a0,0x4
8000094c:	fb450513          	addi	a0,a0,-76 # 800048fc <_read_r+0x6c>
80000950:	184020ef          	jal	ra,80002ad4 <iprintf>
80000954:	343027f3          	csrr	a5,mtval
80000958:	00078093          	mv	ra,a5
8000095c:	00008793          	mv	a5,ra
80000960:	00078593          	mv	a1,a5
80000964:	00004517          	auipc	a0,0x4
80000968:	fa850513          	addi	a0,a0,-88 # 8000490c <_read_r+0x7c>
8000096c:	168020ef          	jal	ra,80002ad4 <iprintf>
80000970:	00000013          	nop
80000974:	01c12083          	lw	ra,28(sp)
80000978:	01812403          	lw	s0,24(sp)
8000097c:	02010113          	addi	sp,sp,32
80000980:	00008067          	ret

80000984 <Exception_Init>:
80000984:	fe010113          	addi	sp,sp,-32
80000988:	00812e23          	sw	s0,28(sp)
8000098c:	02010413          	addi	s0,sp,32
80000990:	fe042623          	sw	zero,-20(s0)
80000994:	0300006f          	j	800009c4 <Exception_Init+0x40>
80000998:	00000717          	auipc	a4,0x0
8000099c:	efc70713          	addi	a4,a4,-260 # 80000894 <system_default_exception_handler>
800009a0:	0ffff697          	auipc	a3,0xffff
800009a4:	6dc68693          	addi	a3,a3,1756 # 9000007c <SystemExceptionHandlers>
800009a8:	fec42783          	lw	a5,-20(s0)
800009ac:	00279793          	slli	a5,a5,0x2
800009b0:	00f687b3          	add	a5,a3,a5
800009b4:	00e7a023          	sw	a4,0(a5)
800009b8:	fec42783          	lw	a5,-20(s0)
800009bc:	00178793          	addi	a5,a5,1
800009c0:	fef42623          	sw	a5,-20(s0)
800009c4:	fec42703          	lw	a4,-20(s0)
800009c8:	00a00793          	li	a5,10
800009cc:	fce7d6e3          	bge	a5,a4,80000998 <Exception_Init+0x14>
800009d0:	00000013          	nop
800009d4:	00000013          	nop
800009d8:	01c12403          	lw	s0,28(sp)
800009dc:	02010113          	addi	sp,sp,32
800009e0:	00008067          	ret

800009e4 <Interrupt_Init>:
800009e4:	fe010113          	addi	sp,sp,-32
800009e8:	00812e23          	sw	s0,28(sp)
800009ec:	02010413          	addi	s0,sp,32
800009f0:	fe042623          	sw	zero,-20(s0)
800009f4:	0300006f          	j	80000a24 <Interrupt_Init+0x40>
800009f8:	00000717          	auipc	a4,0x0
800009fc:	f0c70713          	addi	a4,a4,-244 # 80000904 <system_default_interrupt_handler>
80000a00:	0ffff697          	auipc	a3,0xffff
80000a04:	6a868693          	addi	a3,a3,1704 # 900000a8 <SystemExtInterruptHandlers>
80000a08:	fec42783          	lw	a5,-20(s0)
80000a0c:	00279793          	slli	a5,a5,0x2
80000a10:	00f687b3          	add	a5,a3,a5
80000a14:	00e7a023          	sw	a4,0(a5)
80000a18:	fec42783          	lw	a5,-20(s0)
80000a1c:	00178793          	addi	a5,a5,1
80000a20:	fef42623          	sw	a5,-20(s0)
80000a24:	fec42703          	lw	a4,-20(s0)
80000a28:	01000793          	li	a5,16
80000a2c:	fce7d6e3          	bge	a5,a4,800009f8 <Interrupt_Init+0x14>
80000a30:	fe042623          	sw	zero,-20(s0)
80000a34:	02c0006f          	j	80000a60 <Interrupt_Init+0x7c>
80000a38:	00000717          	auipc	a4,0x0
80000a3c:	ecc70713          	addi	a4,a4,-308 # 80000904 <system_default_interrupt_handler>
80000a40:	88c18693          	addi	a3,gp,-1908 # 900000ec <SystemCoreInterruptHandlers>
80000a44:	fec42783          	lw	a5,-20(s0)
80000a48:	00279793          	slli	a5,a5,0x2
80000a4c:	00f687b3          	add	a5,a3,a5
80000a50:	00e7a023          	sw	a4,0(a5)
80000a54:	fec42783          	lw	a5,-20(s0)
80000a58:	00178793          	addi	a5,a5,1
80000a5c:	fef42623          	sw	a5,-20(s0)
80000a60:	fec42703          	lw	a4,-20(s0)
80000a64:	00900793          	li	a5,9
80000a68:	fce7d8e3          	bge	a5,a4,80000a38 <Interrupt_Init+0x54>
80000a6c:	00000013          	nop
80000a70:	00000013          	nop
80000a74:	01c12403          	lw	s0,28(sp)
80000a78:	02010113          	addi	sp,sp,32
80000a7c:	00008067          	ret

80000a80 <core_trap_handler>:
80000a80:	fc010113          	addi	sp,sp,-64
80000a84:	02112e23          	sw	ra,60(sp)
80000a88:	02812c23          	sw	s0,56(sp)
80000a8c:	02912a23          	sw	s1,52(sp)
80000a90:	04010413          	addi	s0,sp,64
80000a94:	fca42623          	sw	a0,-52(s0)
80000a98:	fcb42423          	sw	a1,-56(s0)
80000a9c:	fcc42783          	lw	a5,-52(s0)
80000aa0:	1007da63          	bgez	a5,80000bb4 <core_trap_handler+0x134>
80000aa4:	fe042623          	sw	zero,-20(s0)
80000aa8:	fcc42703          	lw	a4,-52(s0)
80000aac:	000017b7          	lui	a5,0x1
80000ab0:	fff78793          	addi	a5,a5,-1 # fff <__stack_size+0x7ff>
80000ab4:	00f777b3          	and	a5,a4,a5
80000ab8:	fef42423          	sw	a5,-24(s0)
80000abc:	fe842703          	lw	a4,-24(s0)
80000ac0:	00b00793          	li	a5,11
80000ac4:	0af71c63          	bne	a4,a5,80000b7c <core_trap_handler+0xfc>
80000ac8:	f14027f3          	csrr	a5,mhartid
80000acc:	00078493          	mv	s1,a5
80000ad0:	00048793          	mv	a5,s1
80000ad4:	fef42223          	sw	a5,-28(s0)
80000ad8:	fe442783          	lw	a5,-28(s0)
80000adc:	00c79713          	slli	a4,a5,0xc
80000ae0:	0c2007b7          	lui	a5,0xc200
80000ae4:	00478793          	addi	a5,a5,4 # c200004 <__stack_size+0xc1ff804>
80000ae8:	00f707b3          	add	a5,a4,a5
80000aec:	fef42023          	sw	a5,-32(s0)
80000af0:	fe042783          	lw	a5,-32(s0)
80000af4:	0007a783          	lw	a5,0(a5)
80000af8:	fef42423          	sw	a5,-24(s0)
80000afc:	fe842703          	lw	a4,-24(s0)
80000b00:	01000793          	li	a5,16
80000b04:	0ae7e463          	bltu	a5,a4,80000bac <core_trap_handler+0x12c>
80000b08:	0ffff717          	auipc	a4,0xffff
80000b0c:	5a070713          	addi	a4,a4,1440 # 900000a8 <SystemExtInterruptHandlers>
80000b10:	fe842783          	lw	a5,-24(s0)
80000b14:	00279793          	slli	a5,a5,0x2
80000b18:	00f707b3          	add	a5,a4,a5
80000b1c:	0007a783          	lw	a5,0(a5)
80000b20:	fef42623          	sw	a5,-20(s0)
80000b24:	fec42783          	lw	a5,-20(s0)
80000b28:	00078a63          	beqz	a5,80000b3c <core_trap_handler+0xbc>
80000b2c:	fec42783          	lw	a5,-20(s0)
80000b30:	fc842583          	lw	a1,-56(s0)
80000b34:	fcc42503          	lw	a0,-52(s0)
80000b38:	000780e7          	jalr	a5
80000b3c:	fe842783          	lw	a5,-24(s0)
80000b40:	fcf42e23          	sw	a5,-36(s0)
80000b44:	f14027f3          	csrr	a5,mhartid
80000b48:	00078493          	mv	s1,a5
80000b4c:	00048793          	mv	a5,s1
80000b50:	fcf42c23          	sw	a5,-40(s0)
80000b54:	fd842783          	lw	a5,-40(s0)
80000b58:	00c79713          	slli	a4,a5,0xc
80000b5c:	0c2007b7          	lui	a5,0xc200
80000b60:	00478793          	addi	a5,a5,4 # c200004 <__stack_size+0xc1ff804>
80000b64:	00f707b3          	add	a5,a4,a5
80000b68:	fcf42a23          	sw	a5,-44(s0)
80000b6c:	fd442783          	lw	a5,-44(s0)
80000b70:	fdc42703          	lw	a4,-36(s0)
80000b74:	00e7a023          	sw	a4,0(a5)
80000b78:	0340006f          	j	80000bac <core_trap_handler+0x12c>
80000b7c:	88c18713          	addi	a4,gp,-1908 # 900000ec <SystemCoreInterruptHandlers>
80000b80:	fe842783          	lw	a5,-24(s0)
80000b84:	00279793          	slli	a5,a5,0x2
80000b88:	00f707b3          	add	a5,a4,a5
80000b8c:	0007a783          	lw	a5,0(a5)
80000b90:	fef42623          	sw	a5,-20(s0)
80000b94:	fec42783          	lw	a5,-20(s0)
80000b98:	00078a63          	beqz	a5,80000bac <core_trap_handler+0x12c>
80000b9c:	fec42783          	lw	a5,-20(s0)
80000ba0:	fc842583          	lw	a1,-56(s0)
80000ba4:	fcc42503          	lw	a0,-52(s0)
80000ba8:	000780e7          	jalr	a5
80000bac:	00000793          	li	a5,0
80000bb0:	0140006f          	j	80000bc4 <core_trap_handler+0x144>
80000bb4:	fc842583          	lw	a1,-56(s0)
80000bb8:	fcc42503          	lw	a0,-52(s0)
80000bbc:	020000ef          	jal	ra,80000bdc <core_exception_handler>
80000bc0:	00050793          	mv	a5,a0
80000bc4:	00078513          	mv	a0,a5
80000bc8:	03c12083          	lw	ra,60(sp)
80000bcc:	03812403          	lw	s0,56(sp)
80000bd0:	03412483          	lw	s1,52(sp)
80000bd4:	04010113          	addi	sp,sp,64
80000bd8:	00008067          	ret

80000bdc <core_exception_handler>:
80000bdc:	fd010113          	addi	sp,sp,-48
80000be0:	02112623          	sw	ra,44(sp)
80000be4:	02812423          	sw	s0,40(sp)
80000be8:	03010413          	addi	s0,sp,48
80000bec:	fca42e23          	sw	a0,-36(s0)
80000bf0:	fcb42c23          	sw	a1,-40(s0)
80000bf4:	fdc42703          	lw	a4,-36(s0)
80000bf8:	000017b7          	lui	a5,0x1
80000bfc:	fff78793          	addi	a5,a5,-1 # fff <__stack_size+0x7ff>
80000c00:	00f777b3          	and	a5,a4,a5
80000c04:	fef42423          	sw	a5,-24(s0)
80000c08:	fe842703          	lw	a4,-24(s0)
80000c0c:	00a00793          	li	a5,10
80000c10:	02e7e263          	bltu	a5,a4,80000c34 <core_exception_handler+0x58>
80000c14:	0ffff717          	auipc	a4,0xffff
80000c18:	46870713          	addi	a4,a4,1128 # 9000007c <SystemExceptionHandlers>
80000c1c:	fe842783          	lw	a5,-24(s0)
80000c20:	00279793          	slli	a5,a5,0x2
80000c24:	00f707b3          	add	a5,a4,a5
80000c28:	0007a783          	lw	a5,0(a5)
80000c2c:	fef42623          	sw	a5,-20(s0)
80000c30:	0100006f          	j	80000c40 <core_exception_handler+0x64>
80000c34:	00000797          	auipc	a5,0x0
80000c38:	c6078793          	addi	a5,a5,-928 # 80000894 <system_default_exception_handler>
80000c3c:	fef42623          	sw	a5,-20(s0)
80000c40:	fec42783          	lw	a5,-20(s0)
80000c44:	00078a63          	beqz	a5,80000c58 <core_exception_handler+0x7c>
80000c48:	fec42783          	lw	a5,-20(s0)
80000c4c:	fd842583          	lw	a1,-40(s0)
80000c50:	fdc42503          	lw	a0,-36(s0)
80000c54:	000780e7          	jalr	a5
80000c58:	00000793          	li	a5,0
80000c5c:	00078513          	mv	a0,a5
80000c60:	02c12083          	lw	ra,44(sp)
80000c64:	02812403          	lw	s0,40(sp)
80000c68:	03010113          	addi	sp,sp,48
80000c6c:	00008067          	ret

80000c70 <SystemBannerPrint>:
80000c70:	fe010113          	addi	sp,sp,-32
80000c74:	00112e23          	sw	ra,28(sp)
80000c78:	00812c23          	sw	s0,24(sp)
80000c7c:	02010413          	addi	s0,sp,32
80000c80:	00004797          	auipc	a5,0x4
80000c84:	cb078793          	addi	a5,a5,-848 # 80004930 <_read_r+0xa0>
80000c88:	fef42223          	sw	a5,-28(s0)
80000c8c:	00004797          	auipc	a5,0x4
80000c90:	cb078793          	addi	a5,a5,-848 # 8000493c <_read_r+0xac>
80000c94:	fef42423          	sw	a5,-24(s0)
80000c98:	00004797          	auipc	a5,0x4
80000c9c:	cac78793          	addi	a5,a5,-852 # 80004944 <_read_r+0xb4>
80000ca0:	fef42623          	sw	a5,-20(s0)
80000ca4:	00004617          	auipc	a2,0x4
80000ca8:	ca460613          	addi	a2,a2,-860 # 80004948 <_read_r+0xb8>
80000cac:	00004597          	auipc	a1,0x4
80000cb0:	ca858593          	addi	a1,a1,-856 # 80004954 <_read_r+0xc4>
80000cb4:	00004517          	auipc	a0,0x4
80000cb8:	cac50513          	addi	a0,a0,-852 # 80004960 <_read_r+0xd0>
80000cbc:	619010ef          	jal	ra,80002ad4 <iprintf>
80000cc0:	fec42783          	lw	a5,-20(s0)
80000cc4:	00078593          	mv	a1,a5
80000cc8:	00004517          	auipc	a0,0x4
80000ccc:	cc050513          	addi	a0,a0,-832 # 80004988 <_read_r+0xf8>
80000cd0:	605010ef          	jal	ra,80002ad4 <iprintf>
80000cd4:	0ffff797          	auipc	a5,0xffff
80000cd8:	39078793          	addi	a5,a5,912 # 90000064 <SystemCoreClock>
80000cdc:	0007a783          	lw	a5,0(a5)
80000ce0:	00078593          	mv	a1,a5
80000ce4:	00004517          	auipc	a0,0x4
80000ce8:	cb850513          	addi	a0,a0,-840 # 8000499c <_read_r+0x10c>
80000cec:	5e9010ef          	jal	ra,80002ad4 <iprintf>
80000cf0:	00000013          	nop
80000cf4:	01c12083          	lw	ra,28(sp)
80000cf8:	01812403          	lw	s0,24(sp)
80000cfc:	02010113          	addi	sp,sp,32
80000d00:	00008067          	ret

80000d04 <_premain_init>:
80000d04:	fc010113          	addi	sp,sp,-64
80000d08:	02112e23          	sw	ra,60(sp)
80000d0c:	02812c23          	sw	s0,56(sp)
80000d10:	02912a23          	sw	s1,52(sp)
80000d14:	04010413          	addi	s0,sp,64
80000d18:	a2dff0ef          	jal	ra,80000744 <get_cpu_freq>
80000d1c:	00050713          	mv	a4,a0
80000d20:	0ffff797          	auipc	a5,0xffff
80000d24:	34478793          	addi	a5,a5,836 # 90000064 <SystemCoreClock>
80000d28:	00e7a023          	sw	a4,0(a5)
80000d2c:	000305b7          	lui	a1,0x30
80000d30:	10012537          	lui	a0,0x10012
80000d34:	efcff0ef          	jal	ra,80000430 <gpio_iof_config>
80000d38:	0001c7b7          	lui	a5,0x1c
80000d3c:	20078593          	addi	a1,a5,512 # 1c200 <__stack_size+0x1ba00>
80000d40:	10013537          	lui	a0,0x10013
80000d44:	f44ff0ef          	jal	ra,80000488 <uart_init>
80000d48:	f29ff0ef          	jal	ra,80000c70 <SystemBannerPrint>
80000d4c:	c39ff0ef          	jal	ra,80000984 <Exception_Init>
80000d50:	c95ff0ef          	jal	ra,800009e4 <Interrupt_Init>
80000d54:	01100793          	li	a5,17
80000d58:	fef42623          	sw	a5,-20(s0)
80000d5c:	fe042423          	sw	zero,-24(s0)
80000d60:	0bc0006f          	j	80000e1c <_premain_init+0x118>
80000d64:	fe842783          	lw	a5,-24(s0)
80000d68:	fef42223          	sw	a5,-28(s0)
80000d6c:	f14027f3          	csrr	a5,mhartid
80000d70:	00078493          	mv	s1,a5
80000d74:	00048793          	mv	a5,s1
80000d78:	fef42023          	sw	a5,-32(s0)
80000d7c:	fe042783          	lw	a5,-32(s0)
80000d80:	00779713          	slli	a4,a5,0x7
80000d84:	fe442783          	lw	a5,-28(s0)
80000d88:	0057d793          	srli	a5,a5,0x5
80000d8c:	00279793          	slli	a5,a5,0x2
80000d90:	00f70733          	add	a4,a4,a5
80000d94:	0c0027b7          	lui	a5,0xc002
80000d98:	00f707b3          	add	a5,a4,a5
80000d9c:	fcf42e23          	sw	a5,-36(s0)
80000da0:	fdc42783          	lw	a5,-36(s0)
80000da4:	0007a783          	lw	a5,0(a5) # c002000 <__stack_size+0xc001800>
80000da8:	fcf42c23          	sw	a5,-40(s0)
80000dac:	fe442783          	lw	a5,-28(s0)
80000db0:	01f7f793          	andi	a5,a5,31
80000db4:	00100713          	li	a4,1
80000db8:	00f717b3          	sll	a5,a4,a5
80000dbc:	fff7c793          	not	a5,a5
80000dc0:	00078713          	mv	a4,a5
80000dc4:	fd842783          	lw	a5,-40(s0)
80000dc8:	00e7f7b3          	and	a5,a5,a4
80000dcc:	fcf42c23          	sw	a5,-40(s0)
80000dd0:	fdc42783          	lw	a5,-36(s0)
80000dd4:	fd842703          	lw	a4,-40(s0)
80000dd8:	00e7a023          	sw	a4,0(a5)
80000ddc:	00000013          	nop
80000de0:	fe842783          	lw	a5,-24(s0)
80000de4:	fcf42a23          	sw	a5,-44(s0)
80000de8:	fc042823          	sw	zero,-48(s0)
80000dec:	fd442783          	lw	a5,-44(s0)
80000df0:	00279713          	slli	a4,a5,0x2
80000df4:	0c0007b7          	lui	a5,0xc000
80000df8:	00f707b3          	add	a5,a4,a5
80000dfc:	fcf42623          	sw	a5,-52(s0)
80000e00:	fcc42783          	lw	a5,-52(s0)
80000e04:	fd042703          	lw	a4,-48(s0)
80000e08:	00e7a023          	sw	a4,0(a5) # c000000 <__stack_size+0xbfff800>
80000e0c:	00000013          	nop
80000e10:	fe842783          	lw	a5,-24(s0)
80000e14:	00178793          	addi	a5,a5,1
80000e18:	fef42423          	sw	a5,-24(s0)
80000e1c:	fec42703          	lw	a4,-20(s0)
80000e20:	fe842783          	lw	a5,-24(s0)
80000e24:	f4e7e0e3          	bltu	a5,a4,80000d64 <_premain_init+0x60>
80000e28:	fc042423          	sw	zero,-56(s0)
80000e2c:	f14027f3          	csrr	a5,mhartid
80000e30:	00078493          	mv	s1,a5
80000e34:	00048793          	mv	a5,s1
80000e38:	fcf42223          	sw	a5,-60(s0)
80000e3c:	fc442783          	lw	a5,-60(s0)
80000e40:	00c79713          	slli	a4,a5,0xc
80000e44:	0c2007b7          	lui	a5,0xc200
80000e48:	00f707b3          	add	a5,a4,a5
80000e4c:	fcf42023          	sw	a5,-64(s0)
80000e50:	fc042783          	lw	a5,-64(s0)
80000e54:	fc842703          	lw	a4,-56(s0)
80000e58:	00e7a023          	sw	a4,0(a5) # c200000 <__stack_size+0xc1ff800>
80000e5c:	00000013          	nop
80000e60:	00000013          	nop
80000e64:	00000013          	nop
80000e68:	03c12083          	lw	ra,60(sp)
80000e6c:	03812403          	lw	s0,56(sp)
80000e70:	03412483          	lw	s1,52(sp)
80000e74:	04010113          	addi	sp,sp,64
80000e78:	00008067          	ret

80000e7c <_postmain_fini>:
80000e7c:	fe010113          	addi	sp,sp,-32
80000e80:	00812e23          	sw	s0,28(sp)
80000e84:	02010413          	addi	s0,sp,32
80000e88:	fea42623          	sw	a0,-20(s0)
80000e8c:	00000013          	nop
80000e90:	01c12403          	lw	s0,28(sp)
80000e94:	02010113          	addi	sp,sp,32
80000e98:	00008067          	ret

80000e9c <_init>:
80000e9c:	ff010113          	addi	sp,sp,-16
80000ea0:	00812623          	sw	s0,12(sp)
80000ea4:	01010413          	addi	s0,sp,16
80000ea8:	00000013          	nop
80000eac:	00c12403          	lw	s0,12(sp)
80000eb0:	01010113          	addi	sp,sp,16
80000eb4:	00008067          	ret

80000eb8 <_fini>:
80000eb8:	ff010113          	addi	sp,sp,-16
80000ebc:	00812623          	sw	s0,12(sp)
80000ec0:	01010413          	addi	s0,sp,16
80000ec4:	00000013          	nop
80000ec8:	00c12403          	lw	s0,12(sp)
80000ecc:	01010113          	addi	sp,sp,16
80000ed0:	00008067          	ret

80000ed4 <aes_enc_rounds>:
80000ed4:	0005ae83          	lw	t4,0(a1) # 30000 <__stack_size+0x2f800>
80000ed8:	0045af03          	lw	t5,4(a1)
80000edc:	0085af83          	lw	t6,8(a1)
80000ee0:	00c5a883          	lw	a7,12(a1)
80000ee4:	00062283          	lw	t0,0(a2)
80000ee8:	00462303          	lw	t1,4(a2)
80000eec:	00862383          	lw	t2,8(a2)
80000ef0:	00c62e03          	lw	t3,12(a2)
80000ef4:	00469693          	slli	a3,a3,0x4
80000ef8:	00d606b3          	add	a3,a2,a3
80000efc:	0440006f          	j	80000f40 <.ent>

80000f00 <.loop>:
80000f00:	01d2e28b          	0x1d2e28b
80000f04:	03e2e28b          	0x3e2e28b
80000f08:	05f2e28b          	0x5f2e28b
80000f0c:	0712e28b          	0x712e28b
80000f10:	01e3630b          	0x1e3630b
80000f14:	03f3630b          	0x3f3630b
80000f18:	0513630b          	0x513630b
80000f1c:	07d3630b          	0x7d3630b
80000f20:	01f3e38b          	0x1f3e38b
80000f24:	0313e38b          	0x313e38b
80000f28:	05d3e38b          	0x5d3e38b
80000f2c:	07e3e38b          	0x7e3e38b
80000f30:	011e6e0b          	0x11e6e0b
80000f34:	03de6e0b          	0x3de6e0b
80000f38:	05ee6e0b          	0x5ee6e0b
80000f3c:	07fe6e0b          	0x7fe6e0b

80000f40 <.ent>:
80000f40:	01062e83          	lw	t4,16(a2)
80000f44:	01462f03          	lw	t5,20(a2)
80000f48:	01862f83          	lw	t6,24(a2)
80000f4c:	01c62883          	lw	a7,28(a2)
80000f50:	005eee8b          	0x5eee8b
80000f54:	026eee8b          	0x26eee8b
80000f58:	047eee8b          	0x47eee8b
80000f5c:	07ceee8b          	0x7ceee8b
80000f60:	006f6f0b          	0x6f6f0b
80000f64:	027f6f0b          	0x27f6f0b
80000f68:	05cf6f0b          	0x5cf6f0b
80000f6c:	065f6f0b          	0x65f6f0b
80000f70:	007fef8b          	0x7fef8b
80000f74:	03cfef8b          	0x3cfef8b
80000f78:	045fef8b          	0x45fef8b
80000f7c:	066fef8b          	0x66fef8b
80000f80:	01c8e88b          	0x1c8e88b
80000f84:	0258e88b          	0x258e88b
80000f88:	0468e88b          	0x468e88b
80000f8c:	0678e88b          	0x678e88b
80000f90:	02060613          	addi	a2,a2,32
80000f94:	00062283          	lw	t0,0(a2)
80000f98:	00462303          	lw	t1,4(a2)
80000f9c:	00862383          	lw	t2,8(a2)
80000fa0:	00c62e03          	lw	t3,12(a2)
80000fa4:	f4c69ee3          	bne	a3,a2,80000f00 <.loop>
80000fa8:	09d2e28b          	0x9d2e28b
80000fac:	0be2e28b          	0xbe2e28b
80000fb0:	0df2e28b          	0xdf2e28b
80000fb4:	0f12e28b          	0xf12e28b
80000fb8:	09e3630b          	0x9e3630b
80000fbc:	0bf3630b          	0xbf3630b
80000fc0:	0d13630b          	0xd13630b
80000fc4:	0fd3630b          	0xfd3630b
80000fc8:	09f3e38b          	0x9f3e38b
80000fcc:	0b13e38b          	0xb13e38b
80000fd0:	0dd3e38b          	0xdd3e38b
80000fd4:	0fe3e38b          	0xfe3e38b
80000fd8:	091e6e0b          	0x91e6e0b
80000fdc:	0bde6e0b          	0xbde6e0b
80000fe0:	0dee6e0b          	0xdee6e0b
80000fe4:	0ffe6e0b          	0xffe6e0b
80000fe8:	00552023          	sw	t0,0(a0) # 10013000 <__stack_size+0x10012800>
80000fec:	00652223          	sw	t1,4(a0)
80000ff0:	00752423          	sw	t2,8(a0)
80000ff4:	01c52623          	sw	t3,12(a0)
80000ff8:	00008067          	ret

80000ffc <aes128_enc_key>:
80000ffc:	80001637          	lui	a2,0x80001
80001000:	1dc60613          	addi	a2,a2,476 # 800011dc <_sp+0xefff11dc>
80001004:	0a050693          	addi	a3,a0,160
80001008:	0005a283          	lw	t0,0(a1)
8000100c:	0045a303          	lw	t1,4(a1)
80001010:	0085a383          	lw	t2,8(a1)
80001014:	00c5ae03          	lw	t3,12(a1)
80001018:	00552023          	sw	t0,0(a0)
8000101c:	00652223          	sw	t1,4(a0)
80001020:	00752423          	sw	t2,8(a0)
80001024:	01c52623          	sw	t3,12(a0)
80001028:	0012c293          	xori	t0,t0,1
8000102c:	0100006f          	j	8000103c <.nl0>

80001030 <.ekl0>:
80001030:	00160613          	addi	a2,a2,1
80001034:	00064583          	lbu	a1,0(a2)
80001038:	0055c2b3          	xor	t0,a1,t0

8000103c <.nl0>:
8000103c:	018e1713          	slli	a4,t3,0x18
80001040:	008e5593          	srli	a1,t3,0x8
80001044:	00b765b3          	or	a1,a4,a1
80001048:	08b2e28b          	0x8b2e28b
8000104c:	0ab2e28b          	0xab2e28b
80001050:	0cb2e28b          	0xcb2e28b
80001054:	0eb2e28b          	0xeb2e28b
80001058:	00534333          	xor	t1,t1,t0
8000105c:	0063c3b3          	xor	t2,t2,t1
80001060:	007e4e33          	xor	t3,t3,t2
80001064:	01050513          	addi	a0,a0,16
80001068:	00552023          	sw	t0,0(a0)
8000106c:	00652223          	sw	t1,4(a0)
80001070:	00752423          	sw	t2,8(a0)
80001074:	01c52623          	sw	t3,12(a0)
80001078:	fad51ce3          	bne	a0,a3,80001030 <.ekl0>
8000107c:	00008067          	ret

80001080 <aes192_enc_key>:
80001080:	80001637          	lui	a2,0x80001
80001084:	1dc60613          	addi	a2,a2,476 # 800011dc <_sp+0xefff11dc>
80001088:	0c050693          	addi	a3,a0,192
8000108c:	0005a283          	lw	t0,0(a1)
80001090:	0045a303          	lw	t1,4(a1)
80001094:	0085a383          	lw	t2,8(a1)
80001098:	00c5ae03          	lw	t3,12(a1)
8000109c:	0105ae83          	lw	t4,16(a1)
800010a0:	0145af03          	lw	t5,20(a1)
800010a4:	00552023          	sw	t0,0(a0)
800010a8:	00652223          	sw	t1,4(a0)
800010ac:	00752423          	sw	t2,8(a0)
800010b0:	01c52623          	sw	t3,12(a0)
800010b4:	0012c293          	xori	t0,t0,1
800010b8:	0100006f          	j	800010c8 <.nl1>

800010bc <.ekl1>:
800010bc:	00160613          	addi	a2,a2,1
800010c0:	00064583          	lbu	a1,0(a2)
800010c4:	0055c2b3          	xor	t0,a1,t0

800010c8 <.nl1>:
800010c8:	01d52823          	sw	t4,16(a0)
800010cc:	01e52a23          	sw	t5,20(a0)
800010d0:	018f1713          	slli	a4,t5,0x18
800010d4:	008f5593          	srli	a1,t5,0x8
800010d8:	00e5e5b3          	or	a1,a1,a4
800010dc:	08b2e28b          	0x8b2e28b
800010e0:	0ab2e28b          	0xab2e28b
800010e4:	0cb2e28b          	0xcb2e28b
800010e8:	0eb2e28b          	0xeb2e28b
800010ec:	00534333          	xor	t1,t1,t0
800010f0:	0063c3b3          	xor	t2,t2,t1
800010f4:	007e4e33          	xor	t3,t3,t2
800010f8:	01ceceb3          	xor	t4,t4,t3
800010fc:	01df4f33          	xor	t5,t5,t4
80001100:	01850513          	addi	a0,a0,24
80001104:	00552023          	sw	t0,0(a0)
80001108:	00652223          	sw	t1,4(a0)
8000110c:	00752423          	sw	t2,8(a0)
80001110:	01c52623          	sw	t3,12(a0)
80001114:	fad514e3          	bne	a0,a3,800010bc <.ekl1>
80001118:	00008067          	ret

8000111c <aes256_enc_key>:
8000111c:	80001637          	lui	a2,0x80001
80001120:	1dc60613          	addi	a2,a2,476 # 800011dc <_sp+0xefff11dc>
80001124:	0e050693          	addi	a3,a0,224
80001128:	0005a283          	lw	t0,0(a1)
8000112c:	0045a303          	lw	t1,4(a1)
80001130:	0085a383          	lw	t2,8(a1)
80001134:	00c5ae03          	lw	t3,12(a1)
80001138:	0105ae83          	lw	t4,16(a1)
8000113c:	0145af03          	lw	t5,20(a1)
80001140:	0185af83          	lw	t6,24(a1)
80001144:	01c5a883          	lw	a7,28(a1)
80001148:	00552023          	sw	t0,0(a0)
8000114c:	00652223          	sw	t1,4(a0)
80001150:	00752423          	sw	t2,8(a0)
80001154:	01c52623          	sw	t3,12(a0)
80001158:	0012c293          	xori	t0,t0,1
8000115c:	02c0006f          	j	80001188 <.nl2>

80001160 <.ekl2>:
80001160:	09ceee8b          	0x9ceee8b
80001164:	0bceee8b          	0xbceee8b
80001168:	0dceee8b          	0xdceee8b
8000116c:	0fceee8b          	0xfceee8b
80001170:	01df4f33          	xor	t5,t5,t4
80001174:	01efcfb3          	xor	t6,t6,t5
80001178:	01f8c8b3          	xor	a7,a7,t6
8000117c:	00160613          	addi	a2,a2,1
80001180:	00064583          	lbu	a1,0(a2)
80001184:	0055c2b3          	xor	t0,a1,t0

80001188 <.nl2>:
80001188:	01d52823          	sw	t4,16(a0)
8000118c:	01e52a23          	sw	t5,20(a0)
80001190:	01f52c23          	sw	t6,24(a0)
80001194:	01152e23          	sw	a7,28(a0)
80001198:	01889713          	slli	a4,a7,0x18
8000119c:	0088d593          	srli	a1,a7,0x8
800011a0:	00e5e5b3          	or	a1,a1,a4
800011a4:	08b2e28b          	0x8b2e28b
800011a8:	0ab2e28b          	0xab2e28b
800011ac:	0cb2e28b          	0xcb2e28b
800011b0:	0eb2e28b          	0xeb2e28b
800011b4:	00534333          	xor	t1,t1,t0
800011b8:	0063c3b3          	xor	t2,t2,t1
800011bc:	007e4e33          	xor	t3,t3,t2
800011c0:	02050513          	addi	a0,a0,32
800011c4:	00552023          	sw	t0,0(a0)
800011c8:	00652223          	sw	t1,4(a0)
800011cc:	00752423          	sw	t2,8(a0)
800011d0:	01c52623          	sw	t3,12(a0)
800011d4:	f8d516e3          	bne	a0,a3,80001160 <.ekl2>
800011d8:	00008067          	ret

800011dc <.rcon>:
800011dc:	08040201 80402010 0000361b              ..... @..6..

800011e8 <phex>:
800011e8:	fd010113          	addi	sp,sp,-48
800011ec:	02112623          	sw	ra,44(sp)
800011f0:	02812423          	sw	s0,40(sp)
800011f4:	03010413          	addi	s0,sp,48
800011f8:	fca42e23          	sw	a0,-36(s0)
800011fc:	01000793          	li	a5,16
80001200:	fef40723          	sb	a5,-18(s0)
80001204:	fe0407a3          	sb	zero,-17(s0)
80001208:	0300006f          	j	80001238 <phex+0x50>
8000120c:	fef44783          	lbu	a5,-17(s0)
80001210:	fdc42703          	lw	a4,-36(s0)
80001214:	00f707b3          	add	a5,a4,a5
80001218:	0007c783          	lbu	a5,0(a5)
8000121c:	00078593          	mv	a1,a5
80001220:	00003517          	auipc	a0,0x3
80001224:	79450513          	addi	a0,a0,1940 # 800049b4 <_read_r+0x124>
80001228:	0ad010ef          	jal	ra,80002ad4 <iprintf>
8000122c:	fef44783          	lbu	a5,-17(s0)
80001230:	00178793          	addi	a5,a5,1
80001234:	fef407a3          	sb	a5,-17(s0)
80001238:	fef44703          	lbu	a4,-17(s0)
8000123c:	fee44783          	lbu	a5,-18(s0)
80001240:	fcf766e3          	bltu	a4,a5,8000120c <phex+0x24>
80001244:	00a00513          	li	a0,10
80001248:	0f9010ef          	jal	ra,80002b40 <putchar>
8000124c:	00000013          	nop
80001250:	02c12083          	lw	ra,44(sp)
80001254:	02812403          	lw	s0,40(sp)
80001258:	03010113          	addi	sp,sp,48
8000125c:	00008067          	ret

80001260 <normal_case>:
80001260:	f1010113          	addi	sp,sp,-240
80001264:	0e112623          	sw	ra,236(sp)
80001268:	0e812423          	sw	s0,232(sp)
8000126c:	0f010413          	addi	s0,sp,240
80001270:	00003797          	auipc	a5,0x3
80001274:	75878793          	addi	a5,a5,1880 # 800049c8 <_read_r+0x138>
80001278:	0007a603          	lw	a2,0(a5)
8000127c:	0047a683          	lw	a3,4(a5)
80001280:	0087a703          	lw	a4,8(a5)
80001284:	00c7a783          	lw	a5,12(a5)
80001288:	fec42023          	sw	a2,-32(s0)
8000128c:	fed42223          	sw	a3,-28(s0)
80001290:	fee42423          	sw	a4,-24(s0)
80001294:	fef42623          	sw	a5,-20(s0)
80001298:	00003797          	auipc	a5,0x3
8000129c:	74078793          	addi	a5,a5,1856 # 800049d8 <_read_r+0x148>
800012a0:	0007a603          	lw	a2,0(a5)
800012a4:	0047a683          	lw	a3,4(a5)
800012a8:	0087a703          	lw	a4,8(a5)
800012ac:	00c7a783          	lw	a5,12(a5)
800012b0:	fcc42823          	sw	a2,-48(s0)
800012b4:	fcd42a23          	sw	a3,-44(s0)
800012b8:	fce42c23          	sw	a4,-40(s0)
800012bc:	fcf42e23          	sw	a5,-36(s0)
800012c0:	00003517          	auipc	a0,0x3
800012c4:	6fc50513          	addi	a0,a0,1788 # 800049bc <_read_r+0x12c>
800012c8:	2e5010ef          	jal	ra,80002dac <puts>
800012cc:	fe040713          	addi	a4,s0,-32
800012d0:	f1040793          	addi	a5,s0,-240
800012d4:	00070593          	mv	a1,a4
800012d8:	00078513          	mv	a0,a5
800012dc:	14d000ef          	jal	ra,80001c28 <AES_init_ctx>
800012e0:	fd040713          	addi	a4,s0,-48
800012e4:	f1040793          	addi	a5,s0,-240
800012e8:	00070593          	mv	a1,a4
800012ec:	00078513          	mv	a0,a5
800012f0:	7e1000ef          	jal	ra,800022d0 <AES_ECB_encrypt>
800012f4:	fd040793          	addi	a5,s0,-48
800012f8:	00078513          	mv	a0,a5
800012fc:	eedff0ef          	jal	ra,800011e8 <phex>
80001300:	00000013          	nop
80001304:	0ec12083          	lw	ra,236(sp)
80001308:	0e812403          	lw	s0,232(sp)
8000130c:	0f010113          	addi	sp,sp,240
80001310:	00008067          	ret

80001314 <main>:
80001314:	e9010113          	addi	sp,sp,-368
80001318:	16112623          	sw	ra,364(sp)
8000131c:	16812423          	sw	s0,360(sp)
80001320:	17212223          	sw	s2,356(sp)
80001324:	17312023          	sw	s3,352(sp)
80001328:	15412e23          	sw	s4,348(sp)
8000132c:	15512c23          	sw	s5,344(sp)
80001330:	15612a23          	sw	s6,340(sp)
80001334:	15712823          	sw	s7,336(sp)
80001338:	15812623          	sw	s8,332(sp)
8000133c:	15912423          	sw	s9,328(sp)
80001340:	15a12223          	sw	s10,324(sp)
80001344:	15b12023          	sw	s11,320(sp)
80001348:	17010413          	addi	s0,sp,368
8000134c:	00003797          	auipc	a5,0x3
80001350:	68c78793          	addi	a5,a5,1676 # 800049d8 <_read_r+0x148>
80001354:	0007a603          	lw	a2,0(a5)
80001358:	0047a683          	lw	a3,4(a5)
8000135c:	0087a703          	lw	a4,8(a5)
80001360:	00c7a783          	lw	a5,12(a5)
80001364:	f6c42423          	sw	a2,-152(s0)
80001368:	f6d42623          	sw	a3,-148(s0)
8000136c:	f6e42823          	sw	a4,-144(s0)
80001370:	f6f42a23          	sw	a5,-140(s0)
80001374:	00003797          	auipc	a5,0x3
80001378:	65478793          	addi	a5,a5,1620 # 800049c8 <_read_r+0x138>
8000137c:	0007a603          	lw	a2,0(a5)
80001380:	0047a683          	lw	a3,4(a5)
80001384:	0087a703          	lw	a4,8(a5)
80001388:	00c7a783          	lw	a5,12(a5)
8000138c:	f4c42c23          	sw	a2,-168(s0)
80001390:	f4d42e23          	sw	a3,-164(s0)
80001394:	f6e42023          	sw	a4,-160(s0)
80001398:	f6f42223          	sw	a5,-156(s0)
8000139c:	fc042223          	sw	zero,-60(s0)
800013a0:	00003517          	auipc	a0,0x3
800013a4:	64850513          	addi	a0,a0,1608 # 800049e8 <_read_r+0x158>
800013a8:	205010ef          	jal	ra,80002dac <puts>
800013ac:	00003517          	auipc	a0,0x3
800013b0:	66450513          	addi	a0,a0,1636 # 80004a10 <_read_r+0x180>
800013b4:	1f9010ef          	jal	ra,80002dac <puts>
800013b8:	00003517          	auipc	a0,0x3
800013bc:	66850513          	addi	a0,a0,1640 # 80004a20 <_read_r+0x190>
800013c0:	1ed010ef          	jal	ra,80002dac <puts>
800013c4:	00003517          	auipc	a0,0x3
800013c8:	68c50513          	addi	a0,a0,1676 # 80004a50 <_read_r+0x1c0>
800013cc:	1e1010ef          	jal	ra,80002dac <puts>
800013d0:	b82027f3          	csrr	a5,minstreth
800013d4:	00078093          	mv	ra,a5
800013d8:	00008793          	mv	a5,ra
800013dc:	f4f42223          	sw	a5,-188(s0)
800013e0:	b02027f3          	csrr	a5,minstret
800013e4:	00078093          	mv	ra,a5
800013e8:	00008793          	mv	a5,ra
800013ec:	f4f42023          	sw	a5,-192(s0)
800013f0:	b82027f3          	csrr	a5,minstreth
800013f4:	00078093          	mv	ra,a5
800013f8:	00008793          	mv	a5,ra
800013fc:	f2f42e23          	sw	a5,-196(s0)
80001400:	f4442703          	lw	a4,-188(s0)
80001404:	f3c42783          	lw	a5,-196(s0)
80001408:	00f70a63          	beq	a4,a5,8000141c <main+0x108>
8000140c:	b02027f3          	csrr	a5,minstret
80001410:	00078093          	mv	ra,a5
80001414:	00008793          	mv	a5,ra
80001418:	f4f42023          	sw	a5,-192(s0)
8000141c:	f3c42783          	lw	a5,-196(s0)
80001420:	eaf42423          	sw	a5,-344(s0)
80001424:	ea042623          	sw	zero,-340(s0)
80001428:	ea842783          	lw	a5,-344(s0)
8000142c:	00079793          	slli	a5,a5,0x0
80001430:	eaf42223          	sw	a5,-348(s0)
80001434:	ea042023          	sw	zero,-352(s0)
80001438:	f4042783          	lw	a5,-192(s0)
8000143c:	e8f42c23          	sw	a5,-360(s0)
80001440:	e8042e23          	sw	zero,-356(s0)
80001444:	ea042503          	lw	a0,-352(s0)
80001448:	ea442583          	lw	a1,-348(s0)
8000144c:	00050793          	mv	a5,a0
80001450:	e9842603          	lw	a2,-360(s0)
80001454:	e9c42683          	lw	a3,-356(s0)
80001458:	00060713          	mv	a4,a2
8000145c:	00e7e7b3          	or	a5,a5,a4
80001460:	f6f42c23          	sw	a5,-136(s0)
80001464:	00058793          	mv	a5,a1
80001468:	00068713          	mv	a4,a3
8000146c:	00e7e7b3          	or	a5,a5,a4
80001470:	f6f42e23          	sw	a5,-132(s0)
80001474:	f7842703          	lw	a4,-136(s0)
80001478:	f7c42783          	lw	a5,-132(s0)
8000147c:	fce42023          	sw	a4,-64(s0)
80001480:	b80027f3          	csrr	a5,mcycleh
80001484:	00078093          	mv	ra,a5
80001488:	00008793          	mv	a5,ra
8000148c:	f2f42c23          	sw	a5,-200(s0)
80001490:	b00027f3          	csrr	a5,mcycle
80001494:	00078093          	mv	ra,a5
80001498:	00008793          	mv	a5,ra
8000149c:	f2f42a23          	sw	a5,-204(s0)
800014a0:	b80027f3          	csrr	a5,mcycleh
800014a4:	00078093          	mv	ra,a5
800014a8:	00008793          	mv	a5,ra
800014ac:	f2f42823          	sw	a5,-208(s0)
800014b0:	f3842703          	lw	a4,-200(s0)
800014b4:	f3042783          	lw	a5,-208(s0)
800014b8:	00f70a63          	beq	a4,a5,800014cc <main+0x1b8>
800014bc:	b00027f3          	csrr	a5,mcycle
800014c0:	00078093          	mv	ra,a5
800014c4:	00008793          	mv	a5,ra
800014c8:	f2f42a23          	sw	a5,-204(s0)
800014cc:	f3042783          	lw	a5,-208(s0)
800014d0:	ecf42023          	sw	a5,-320(s0)
800014d4:	ec042223          	sw	zero,-316(s0)
800014d8:	ec042783          	lw	a5,-320(s0)
800014dc:	00079793          	slli	a5,a5,0x0
800014e0:	eaf42e23          	sw	a5,-324(s0)
800014e4:	ea042c23          	sw	zero,-328(s0)
800014e8:	f3442783          	lw	a5,-204(s0)
800014ec:	eaf42823          	sw	a5,-336(s0)
800014f0:	ea042a23          	sw	zero,-332(s0)
800014f4:	eb842503          	lw	a0,-328(s0)
800014f8:	ebc42583          	lw	a1,-324(s0)
800014fc:	00050793          	mv	a5,a0
80001500:	eb042603          	lw	a2,-336(s0)
80001504:	eb442683          	lw	a3,-332(s0)
80001508:	00060713          	mv	a4,a2
8000150c:	00e7e7b3          	or	a5,a5,a4
80001510:	f8f42023          	sw	a5,-128(s0)
80001514:	00058793          	mv	a5,a1
80001518:	00068713          	mv	a4,a3
8000151c:	00e7e7b3          	or	a5,a5,a4
80001520:	f8f42223          	sw	a5,-124(s0)
80001524:	f8042703          	lw	a4,-128(s0)
80001528:	f8442783          	lw	a5,-124(s0)
8000152c:	fae42e23          	sw	a4,-68(s0)
80001530:	d31ff0ef          	jal	ra,80001260 <normal_case>
80001534:	fcc42703          	lw	a4,-52(s0)
80001538:	fc042783          	lw	a5,-64(s0)
8000153c:	40f707b3          	sub	a5,a4,a5
80001540:	faf42c23          	sw	a5,-72(s0)
80001544:	fc842703          	lw	a4,-56(s0)
80001548:	fbc42783          	lw	a5,-68(s0)
8000154c:	40f707b3          	sub	a5,a4,a5
80001550:	faf42a23          	sw	a5,-76(s0)
80001554:	00003517          	auipc	a0,0x3
80001558:	4cc50513          	addi	a0,a0,1228 # 80004a20 <_read_r+0x190>
8000155c:	051010ef          	jal	ra,80002dac <puts>
80001560:	00003517          	auipc	a0,0x3
80001564:	50c50513          	addi	a0,a0,1292 # 80004a6c <_read_r+0x1dc>
80001568:	045010ef          	jal	ra,80002dac <puts>
8000156c:	b82027f3          	csrr	a5,minstreth
80001570:	00078093          	mv	ra,a5
80001574:	00008793          	mv	a5,ra
80001578:	f2f42623          	sw	a5,-212(s0)
8000157c:	b02027f3          	csrr	a5,minstret
80001580:	00078093          	mv	ra,a5
80001584:	00008793          	mv	a5,ra
80001588:	f2f42423          	sw	a5,-216(s0)
8000158c:	b82027f3          	csrr	a5,minstreth
80001590:	00078093          	mv	ra,a5
80001594:	00008793          	mv	a5,ra
80001598:	f2f42223          	sw	a5,-220(s0)
8000159c:	f2c42703          	lw	a4,-212(s0)
800015a0:	f2442783          	lw	a5,-220(s0)
800015a4:	00f70a63          	beq	a4,a5,800015b8 <main+0x2a4>
800015a8:	b02027f3          	csrr	a5,minstret
800015ac:	00078093          	mv	ra,a5
800015b0:	00008793          	mv	a5,ra
800015b4:	f2f42423          	sw	a5,-216(s0)
800015b8:	f2442783          	lw	a5,-220(s0)
800015bc:	ecf42c23          	sw	a5,-296(s0)
800015c0:	ec042e23          	sw	zero,-292(s0)
800015c4:	ed842783          	lw	a5,-296(s0)
800015c8:	00079793          	slli	a5,a5,0x0
800015cc:	ecf42a23          	sw	a5,-300(s0)
800015d0:	ec042823          	sw	zero,-304(s0)
800015d4:	f2842783          	lw	a5,-216(s0)
800015d8:	ecf42423          	sw	a5,-312(s0)
800015dc:	ec042623          	sw	zero,-308(s0)
800015e0:	ed042503          	lw	a0,-304(s0)
800015e4:	ed442583          	lw	a1,-300(s0)
800015e8:	00050793          	mv	a5,a0
800015ec:	ec842603          	lw	a2,-312(s0)
800015f0:	ecc42683          	lw	a3,-308(s0)
800015f4:	00060713          	mv	a4,a2
800015f8:	00e7e7b3          	or	a5,a5,a4
800015fc:	f8f42423          	sw	a5,-120(s0)
80001600:	00058793          	mv	a5,a1
80001604:	00068713          	mv	a4,a3
80001608:	00e7e7b3          	or	a5,a5,a4
8000160c:	f8f42623          	sw	a5,-116(s0)
80001610:	f8842703          	lw	a4,-120(s0)
80001614:	f8c42783          	lw	a5,-116(s0)
80001618:	fce42023          	sw	a4,-64(s0)
8000161c:	b80027f3          	csrr	a5,mcycleh
80001620:	00078093          	mv	ra,a5
80001624:	00008793          	mv	a5,ra
80001628:	f2f42023          	sw	a5,-224(s0)
8000162c:	b00027f3          	csrr	a5,mcycle
80001630:	00078093          	mv	ra,a5
80001634:	00008793          	mv	a5,ra
80001638:	f0f42e23          	sw	a5,-228(s0)
8000163c:	b80027f3          	csrr	a5,mcycleh
80001640:	00078093          	mv	ra,a5
80001644:	00008793          	mv	a5,ra
80001648:	f0f42c23          	sw	a5,-232(s0)
8000164c:	f2042703          	lw	a4,-224(s0)
80001650:	f1842783          	lw	a5,-232(s0)
80001654:	00f70a63          	beq	a4,a5,80001668 <main+0x354>
80001658:	b00027f3          	csrr	a5,mcycle
8000165c:	00078093          	mv	ra,a5
80001660:	00008793          	mv	a5,ra
80001664:	f0f42e23          	sw	a5,-228(s0)
80001668:	f1842783          	lw	a5,-232(s0)
8000166c:	eef42823          	sw	a5,-272(s0)
80001670:	ee042a23          	sw	zero,-268(s0)
80001674:	ef042783          	lw	a5,-272(s0)
80001678:	00079793          	slli	a5,a5,0x0
8000167c:	eef42623          	sw	a5,-276(s0)
80001680:	ee042423          	sw	zero,-280(s0)
80001684:	f1c42783          	lw	a5,-228(s0)
80001688:	eef42023          	sw	a5,-288(s0)
8000168c:	ee042223          	sw	zero,-284(s0)
80001690:	ee842503          	lw	a0,-280(s0)
80001694:	eec42583          	lw	a1,-276(s0)
80001698:	00050793          	mv	a5,a0
8000169c:	ee042603          	lw	a2,-288(s0)
800016a0:	ee442683          	lw	a3,-284(s0)
800016a4:	00060713          	mv	a4,a2
800016a8:	00e7e7b3          	or	a5,a5,a4
800016ac:	f8f42823          	sw	a5,-112(s0)
800016b0:	00058793          	mv	a5,a1
800016b4:	00068713          	mv	a4,a3
800016b8:	00e7e7b3          	or	a5,a5,a4
800016bc:	f8f42a23          	sw	a5,-108(s0)
800016c0:	f9042703          	lw	a4,-112(s0)
800016c4:	f9442783          	lw	a5,-108(s0)
800016c8:	fae42e23          	sw	a4,-68(s0)
800016cc:	0ffff797          	auipc	a5,0xffff
800016d0:	a4878793          	addi	a5,a5,-1464 # 90000114 <rk>
800016d4:	0007a583          	lw	a1,0(a5)
800016d8:	0ffff797          	auipc	a5,0xffff
800016dc:	a3c78793          	addi	a5,a5,-1476 # 90000114 <rk>
800016e0:	0047a603          	lw	a2,4(a5)
800016e4:	0ffff797          	auipc	a5,0xffff
800016e8:	a3078793          	addi	a5,a5,-1488 # 90000114 <rk>
800016ec:	0087a683          	lw	a3,8(a5)
800016f0:	0ffff797          	auipc	a5,0xffff
800016f4:	a2478793          	addi	a5,a5,-1500 # 90000114 <rk>
800016f8:	00c7a783          	lw	a5,12(a5)
800016fc:	00078713          	mv	a4,a5
80001700:	00003517          	auipc	a0,0x3
80001704:	38850513          	addi	a0,a0,904 # 80004a88 <_read_r+0x1f8>
80001708:	3cc010ef          	jal	ra,80002ad4 <iprintf>
8000170c:	f6840713          	addi	a4,s0,-152
80001710:	f4840793          	addi	a5,s0,-184
80001714:	00a00693          	li	a3,10
80001718:	0ffff617          	auipc	a2,0xffff
8000171c:	9fc60613          	addi	a2,a2,-1540 # 90000114 <rk>
80001720:	00070593          	mv	a1,a4
80001724:	00078513          	mv	a0,a5
80001728:	facff0ef          	jal	ra,80000ed4 <aes_enc_rounds>
8000172c:	b82027f3          	csrr	a5,minstreth
80001730:	00078093          	mv	ra,a5
80001734:	00008793          	mv	a5,ra
80001738:	f0f42a23          	sw	a5,-236(s0)
8000173c:	b02027f3          	csrr	a5,minstret
80001740:	00078093          	mv	ra,a5
80001744:	00008793          	mv	a5,ra
80001748:	f0f42823          	sw	a5,-240(s0)
8000174c:	b82027f3          	csrr	a5,minstreth
80001750:	00078093          	mv	ra,a5
80001754:	00008793          	mv	a5,ra
80001758:	f0f42623          	sw	a5,-244(s0)
8000175c:	f1442703          	lw	a4,-236(s0)
80001760:	f0c42783          	lw	a5,-244(s0)
80001764:	00f70a63          	beq	a4,a5,80001778 <main+0x464>
80001768:	b02027f3          	csrr	a5,minstret
8000176c:	00078093          	mv	ra,a5
80001770:	00008793          	mv	a5,ra
80001774:	f0f42823          	sw	a5,-240(s0)
80001778:	f0c42783          	lw	a5,-244(s0)
8000177c:	00078c13          	mv	s8,a5
80001780:	00000c93          	li	s9,0
80001784:	000c1d93          	slli	s11,s8,0x0
80001788:	00000d13          	li	s10,0
8000178c:	f1042783          	lw	a5,-240(s0)
80001790:	eef42c23          	sw	a5,-264(s0)
80001794:	ee042e23          	sw	zero,-260(s0)
80001798:	ef842603          	lw	a2,-264(s0)
8000179c:	efc42683          	lw	a3,-260(s0)
800017a0:	00060793          	mv	a5,a2
800017a4:	00fd67b3          	or	a5,s10,a5
800017a8:	f8f42c23          	sw	a5,-104(s0)
800017ac:	00068793          	mv	a5,a3
800017b0:	00fde7b3          	or	a5,s11,a5
800017b4:	f8f42e23          	sw	a5,-100(s0)
800017b8:	f9842703          	lw	a4,-104(s0)
800017bc:	f9c42783          	lw	a5,-100(s0)
800017c0:	fce42623          	sw	a4,-52(s0)
800017c4:	b80027f3          	csrr	a5,mcycleh
800017c8:	00078093          	mv	ra,a5
800017cc:	00008793          	mv	a5,ra
800017d0:	f0f42423          	sw	a5,-248(s0)
800017d4:	b00027f3          	csrr	a5,mcycle
800017d8:	00078093          	mv	ra,a5
800017dc:	00008793          	mv	a5,ra
800017e0:	f0f42223          	sw	a5,-252(s0)
800017e4:	b80027f3          	csrr	a5,mcycleh
800017e8:	00078093          	mv	ra,a5
800017ec:	00008793          	mv	a5,ra
800017f0:	f0f42023          	sw	a5,-256(s0)
800017f4:	f0842703          	lw	a4,-248(s0)
800017f8:	f0042783          	lw	a5,-256(s0)
800017fc:	00f70a63          	beq	a4,a5,80001810 <main+0x4fc>
80001800:	b00027f3          	csrr	a5,mcycle
80001804:	00078093          	mv	ra,a5
80001808:	00008793          	mv	a5,ra
8000180c:	f0f42223          	sw	a5,-252(s0)
80001810:	f0042783          	lw	a5,-256(s0)
80001814:	00078913          	mv	s2,a5
80001818:	00000993          	li	s3,0
8000181c:	00091a93          	slli	s5,s2,0x0
80001820:	00000a13          	li	s4,0
80001824:	f0442783          	lw	a5,-252(s0)
80001828:	00078b13          	mv	s6,a5
8000182c:	00000b93          	li	s7,0
80001830:	016a67b3          	or	a5,s4,s6
80001834:	faf42023          	sw	a5,-96(s0)
80001838:	017ae7b3          	or	a5,s5,s7
8000183c:	faf42223          	sw	a5,-92(s0)
80001840:	fa042703          	lw	a4,-96(s0)
80001844:	fa442783          	lw	a5,-92(s0)
80001848:	fce42423          	sw	a4,-56(s0)
8000184c:	fcc42703          	lw	a4,-52(s0)
80001850:	fc042783          	lw	a5,-64(s0)
80001854:	40f707b3          	sub	a5,a4,a5
80001858:	faf42823          	sw	a5,-80(s0)
8000185c:	fc842703          	lw	a4,-56(s0)
80001860:	fbc42783          	lw	a5,-68(s0)
80001864:	40f707b3          	sub	a5,a4,a5
80001868:	faf42623          	sw	a5,-84(s0)
8000186c:	00003517          	auipc	a0,0x3
80001870:	1b450513          	addi	a0,a0,436 # 80004a20 <_read_r+0x190>
80001874:	538010ef          	jal	ra,80002dac <puts>
80001878:	00003517          	auipc	a0,0x3
8000187c:	23050513          	addi	a0,a0,560 # 80004aa8 <_read_r+0x218>
80001880:	52c010ef          	jal	ra,80002dac <puts>
80001884:	00003517          	auipc	a0,0x3
80001888:	23c50513          	addi	a0,a0,572 # 80004ac0 <_read_r+0x230>
8000188c:	520010ef          	jal	ra,80002dac <puts>
80001890:	fb442603          	lw	a2,-76(s0)
80001894:	fb842583          	lw	a1,-72(s0)
80001898:	00003517          	auipc	a0,0x3
8000189c:	23450513          	addi	a0,a0,564 # 80004acc <_read_r+0x23c>
800018a0:	234010ef          	jal	ra,80002ad4 <iprintf>
800018a4:	00003517          	auipc	a0,0x3
800018a8:	24850513          	addi	a0,a0,584 # 80004aec <_read_r+0x25c>
800018ac:	500010ef          	jal	ra,80002dac <puts>
800018b0:	fac42603          	lw	a2,-84(s0)
800018b4:	fb042583          	lw	a1,-80(s0)
800018b8:	00003517          	auipc	a0,0x3
800018bc:	21450513          	addi	a0,a0,532 # 80004acc <_read_r+0x23c>
800018c0:	214010ef          	jal	ra,80002ad4 <iprintf>
800018c4:	00003517          	auipc	a0,0x3
800018c8:	23450513          	addi	a0,a0,564 # 80004af8 <_read_r+0x268>
800018cc:	4e0010ef          	jal	ra,80002dac <puts>
800018d0:	f4840793          	addi	a5,s0,-184
800018d4:	00078513          	mv	a0,a5
800018d8:	911ff0ef          	jal	ra,800011e8 <phex>
800018dc:	00100513          	li	a0,1
800018e0:	ea1fe0ef          	jal	ra,80000780 <delay_1ms>
800018e4:	ad5ff06f          	j	800013b8 <main+0xa4>

800018e8 <KeyExpansion>:
800018e8:	fc010113          	addi	sp,sp,-64
800018ec:	02812e23          	sw	s0,60(sp)
800018f0:	04010413          	addi	s0,sp,64
800018f4:	fca42623          	sw	a0,-52(s0)
800018f8:	fcb42423          	sw	a1,-56(s0)
800018fc:	fe042623          	sw	zero,-20(s0)
80001900:	0c80006f          	j	800019c8 <KeyExpansion+0xe0>
80001904:	fec42783          	lw	a5,-20(s0)
80001908:	00279793          	slli	a5,a5,0x2
8000190c:	fc842703          	lw	a4,-56(s0)
80001910:	00f70733          	add	a4,a4,a5
80001914:	fec42783          	lw	a5,-20(s0)
80001918:	00279793          	slli	a5,a5,0x2
8000191c:	fcc42683          	lw	a3,-52(s0)
80001920:	00f687b3          	add	a5,a3,a5
80001924:	00074703          	lbu	a4,0(a4)
80001928:	00e78023          	sb	a4,0(a5)
8000192c:	fec42783          	lw	a5,-20(s0)
80001930:	00279793          	slli	a5,a5,0x2
80001934:	00178793          	addi	a5,a5,1
80001938:	fc842703          	lw	a4,-56(s0)
8000193c:	00f70733          	add	a4,a4,a5
80001940:	fec42783          	lw	a5,-20(s0)
80001944:	00279793          	slli	a5,a5,0x2
80001948:	00178793          	addi	a5,a5,1
8000194c:	fcc42683          	lw	a3,-52(s0)
80001950:	00f687b3          	add	a5,a3,a5
80001954:	00074703          	lbu	a4,0(a4)
80001958:	00e78023          	sb	a4,0(a5)
8000195c:	fec42783          	lw	a5,-20(s0)
80001960:	00279793          	slli	a5,a5,0x2
80001964:	00278793          	addi	a5,a5,2
80001968:	fc842703          	lw	a4,-56(s0)
8000196c:	00f70733          	add	a4,a4,a5
80001970:	fec42783          	lw	a5,-20(s0)
80001974:	00279793          	slli	a5,a5,0x2
80001978:	00278793          	addi	a5,a5,2
8000197c:	fcc42683          	lw	a3,-52(s0)
80001980:	00f687b3          	add	a5,a3,a5
80001984:	00074703          	lbu	a4,0(a4)
80001988:	00e78023          	sb	a4,0(a5)
8000198c:	fec42783          	lw	a5,-20(s0)
80001990:	00279793          	slli	a5,a5,0x2
80001994:	00378793          	addi	a5,a5,3
80001998:	fc842703          	lw	a4,-56(s0)
8000199c:	00f70733          	add	a4,a4,a5
800019a0:	fec42783          	lw	a5,-20(s0)
800019a4:	00279793          	slli	a5,a5,0x2
800019a8:	00378793          	addi	a5,a5,3
800019ac:	fcc42683          	lw	a3,-52(s0)
800019b0:	00f687b3          	add	a5,a3,a5
800019b4:	00074703          	lbu	a4,0(a4)
800019b8:	00e78023          	sb	a4,0(a5)
800019bc:	fec42783          	lw	a5,-20(s0)
800019c0:	00178793          	addi	a5,a5,1
800019c4:	fef42623          	sw	a5,-20(s0)
800019c8:	fec42703          	lw	a4,-20(s0)
800019cc:	00300793          	li	a5,3
800019d0:	f2e7fae3          	bgeu	a5,a4,80001904 <KeyExpansion+0x1c>
800019d4:	00400793          	li	a5,4
800019d8:	fef42623          	sw	a5,-20(s0)
800019dc:	22c0006f          	j	80001c08 <KeyExpansion+0x320>
800019e0:	fec42783          	lw	a5,-20(s0)
800019e4:	fff78793          	addi	a5,a5,-1
800019e8:	00279793          	slli	a5,a5,0x2
800019ec:	fef42423          	sw	a5,-24(s0)
800019f0:	fcc42703          	lw	a4,-52(s0)
800019f4:	fe842783          	lw	a5,-24(s0)
800019f8:	00f707b3          	add	a5,a4,a5
800019fc:	0007c783          	lbu	a5,0(a5)
80001a00:	fcf40e23          	sb	a5,-36(s0)
80001a04:	fe842783          	lw	a5,-24(s0)
80001a08:	00178793          	addi	a5,a5,1
80001a0c:	fcc42703          	lw	a4,-52(s0)
80001a10:	00f707b3          	add	a5,a4,a5
80001a14:	0007c783          	lbu	a5,0(a5)
80001a18:	fcf40ea3          	sb	a5,-35(s0)
80001a1c:	fe842783          	lw	a5,-24(s0)
80001a20:	00278793          	addi	a5,a5,2
80001a24:	fcc42703          	lw	a4,-52(s0)
80001a28:	00f707b3          	add	a5,a4,a5
80001a2c:	0007c783          	lbu	a5,0(a5)
80001a30:	fcf40f23          	sb	a5,-34(s0)
80001a34:	fe842783          	lw	a5,-24(s0)
80001a38:	00378793          	addi	a5,a5,3
80001a3c:	fcc42703          	lw	a4,-52(s0)
80001a40:	00f707b3          	add	a5,a4,a5
80001a44:	0007c783          	lbu	a5,0(a5)
80001a48:	fcf40fa3          	sb	a5,-33(s0)
80001a4c:	fec42783          	lw	a5,-20(s0)
80001a50:	0037f793          	andi	a5,a5,3
80001a54:	0c079263          	bnez	a5,80001b18 <KeyExpansion+0x230>
80001a58:	fdc44783          	lbu	a5,-36(s0)
80001a5c:	fef403a3          	sb	a5,-25(s0)
80001a60:	fdd44783          	lbu	a5,-35(s0)
80001a64:	fcf40e23          	sb	a5,-36(s0)
80001a68:	fde44783          	lbu	a5,-34(s0)
80001a6c:	fcf40ea3          	sb	a5,-35(s0)
80001a70:	fdf44783          	lbu	a5,-33(s0)
80001a74:	fcf40f23          	sb	a5,-34(s0)
80001a78:	fe744783          	lbu	a5,-25(s0)
80001a7c:	fcf40fa3          	sb	a5,-33(s0)
80001a80:	fdc44783          	lbu	a5,-36(s0)
80001a84:	00078713          	mv	a4,a5
80001a88:	00003797          	auipc	a5,0x3
80001a8c:	0a078793          	addi	a5,a5,160 # 80004b28 <sbox>
80001a90:	00e787b3          	add	a5,a5,a4
80001a94:	0007c783          	lbu	a5,0(a5)
80001a98:	fcf40e23          	sb	a5,-36(s0)
80001a9c:	fdd44783          	lbu	a5,-35(s0)
80001aa0:	00078713          	mv	a4,a5
80001aa4:	00003797          	auipc	a5,0x3
80001aa8:	08478793          	addi	a5,a5,132 # 80004b28 <sbox>
80001aac:	00e787b3          	add	a5,a5,a4
80001ab0:	0007c783          	lbu	a5,0(a5)
80001ab4:	fcf40ea3          	sb	a5,-35(s0)
80001ab8:	fde44783          	lbu	a5,-34(s0)
80001abc:	00078713          	mv	a4,a5
80001ac0:	00003797          	auipc	a5,0x3
80001ac4:	06878793          	addi	a5,a5,104 # 80004b28 <sbox>
80001ac8:	00e787b3          	add	a5,a5,a4
80001acc:	0007c783          	lbu	a5,0(a5)
80001ad0:	fcf40f23          	sb	a5,-34(s0)
80001ad4:	fdf44783          	lbu	a5,-33(s0)
80001ad8:	00078713          	mv	a4,a5
80001adc:	00003797          	auipc	a5,0x3
80001ae0:	04c78793          	addi	a5,a5,76 # 80004b28 <sbox>
80001ae4:	00e787b3          	add	a5,a5,a4
80001ae8:	0007c783          	lbu	a5,0(a5)
80001aec:	fcf40fa3          	sb	a5,-33(s0)
80001af0:	fdc44703          	lbu	a4,-36(s0)
80001af4:	fec42783          	lw	a5,-20(s0)
80001af8:	0027d793          	srli	a5,a5,0x2
80001afc:	00003697          	auipc	a3,0x3
80001b00:	12c68693          	addi	a3,a3,300 # 80004c28 <Rcon>
80001b04:	00f687b3          	add	a5,a3,a5
80001b08:	0007c783          	lbu	a5,0(a5)
80001b0c:	00f747b3          	xor	a5,a4,a5
80001b10:	0ff7f793          	andi	a5,a5,255
80001b14:	fcf40e23          	sb	a5,-36(s0)
80001b18:	fec42783          	lw	a5,-20(s0)
80001b1c:	00279793          	slli	a5,a5,0x2
80001b20:	fef42023          	sw	a5,-32(s0)
80001b24:	fec42783          	lw	a5,-20(s0)
80001b28:	ffc78793          	addi	a5,a5,-4
80001b2c:	00279793          	slli	a5,a5,0x2
80001b30:	fef42423          	sw	a5,-24(s0)
80001b34:	fcc42703          	lw	a4,-52(s0)
80001b38:	fe842783          	lw	a5,-24(s0)
80001b3c:	00f707b3          	add	a5,a4,a5
80001b40:	0007c683          	lbu	a3,0(a5)
80001b44:	fdc44703          	lbu	a4,-36(s0)
80001b48:	fcc42603          	lw	a2,-52(s0)
80001b4c:	fe042783          	lw	a5,-32(s0)
80001b50:	00f607b3          	add	a5,a2,a5
80001b54:	00e6c733          	xor	a4,a3,a4
80001b58:	0ff77713          	andi	a4,a4,255
80001b5c:	00e78023          	sb	a4,0(a5)
80001b60:	fe842783          	lw	a5,-24(s0)
80001b64:	00178793          	addi	a5,a5,1
80001b68:	fcc42703          	lw	a4,-52(s0)
80001b6c:	00f707b3          	add	a5,a4,a5
80001b70:	0007c683          	lbu	a3,0(a5)
80001b74:	fdd44703          	lbu	a4,-35(s0)
80001b78:	fe042783          	lw	a5,-32(s0)
80001b7c:	00178793          	addi	a5,a5,1
80001b80:	fcc42603          	lw	a2,-52(s0)
80001b84:	00f607b3          	add	a5,a2,a5
80001b88:	00e6c733          	xor	a4,a3,a4
80001b8c:	0ff77713          	andi	a4,a4,255
80001b90:	00e78023          	sb	a4,0(a5)
80001b94:	fe842783          	lw	a5,-24(s0)
80001b98:	00278793          	addi	a5,a5,2
80001b9c:	fcc42703          	lw	a4,-52(s0)
80001ba0:	00f707b3          	add	a5,a4,a5
80001ba4:	0007c683          	lbu	a3,0(a5)
80001ba8:	fde44703          	lbu	a4,-34(s0)
80001bac:	fe042783          	lw	a5,-32(s0)
80001bb0:	00278793          	addi	a5,a5,2
80001bb4:	fcc42603          	lw	a2,-52(s0)
80001bb8:	00f607b3          	add	a5,a2,a5
80001bbc:	00e6c733          	xor	a4,a3,a4
80001bc0:	0ff77713          	andi	a4,a4,255
80001bc4:	00e78023          	sb	a4,0(a5)
80001bc8:	fe842783          	lw	a5,-24(s0)
80001bcc:	00378793          	addi	a5,a5,3
80001bd0:	fcc42703          	lw	a4,-52(s0)
80001bd4:	00f707b3          	add	a5,a4,a5
80001bd8:	0007c683          	lbu	a3,0(a5)
80001bdc:	fdf44703          	lbu	a4,-33(s0)
80001be0:	fe042783          	lw	a5,-32(s0)
80001be4:	00378793          	addi	a5,a5,3
80001be8:	fcc42603          	lw	a2,-52(s0)
80001bec:	00f607b3          	add	a5,a2,a5
80001bf0:	00e6c733          	xor	a4,a3,a4
80001bf4:	0ff77713          	andi	a4,a4,255
80001bf8:	00e78023          	sb	a4,0(a5)
80001bfc:	fec42783          	lw	a5,-20(s0)
80001c00:	00178793          	addi	a5,a5,1
80001c04:	fef42623          	sw	a5,-20(s0)
80001c08:	fec42703          	lw	a4,-20(s0)
80001c0c:	02b00793          	li	a5,43
80001c10:	dce7f8e3          	bgeu	a5,a4,800019e0 <KeyExpansion+0xf8>
80001c14:	00000013          	nop
80001c18:	00000013          	nop
80001c1c:	03c12403          	lw	s0,60(sp)
80001c20:	04010113          	addi	sp,sp,64
80001c24:	00008067          	ret

80001c28 <AES_init_ctx>:
80001c28:	fe010113          	addi	sp,sp,-32
80001c2c:	00112e23          	sw	ra,28(sp)
80001c30:	00812c23          	sw	s0,24(sp)
80001c34:	02010413          	addi	s0,sp,32
80001c38:	fea42623          	sw	a0,-20(s0)
80001c3c:	feb42423          	sw	a1,-24(s0)
80001c40:	fec42783          	lw	a5,-20(s0)
80001c44:	fe842583          	lw	a1,-24(s0)
80001c48:	00078513          	mv	a0,a5
80001c4c:	c9dff0ef          	jal	ra,800018e8 <KeyExpansion>
80001c50:	00000013          	nop
80001c54:	01c12083          	lw	ra,28(sp)
80001c58:	01812403          	lw	s0,24(sp)
80001c5c:	02010113          	addi	sp,sp,32
80001c60:	00008067          	ret

80001c64 <AddRoundKey>:
80001c64:	fd010113          	addi	sp,sp,-48
80001c68:	02812623          	sw	s0,44(sp)
80001c6c:	03010413          	addi	s0,sp,48
80001c70:	00050793          	mv	a5,a0
80001c74:	fcb42c23          	sw	a1,-40(s0)
80001c78:	fcc42a23          	sw	a2,-44(s0)
80001c7c:	fcf40fa3          	sb	a5,-33(s0)
80001c80:	fe0407a3          	sb	zero,-17(s0)
80001c84:	09c0006f          	j	80001d20 <AddRoundKey+0xbc>
80001c88:	fe040723          	sb	zero,-18(s0)
80001c8c:	07c0006f          	j	80001d08 <AddRoundKey+0xa4>
80001c90:	fef44703          	lbu	a4,-17(s0)
80001c94:	fee44783          	lbu	a5,-18(s0)
80001c98:	fd842683          	lw	a3,-40(s0)
80001c9c:	00271713          	slli	a4,a4,0x2
80001ca0:	00e68733          	add	a4,a3,a4
80001ca4:	00f707b3          	add	a5,a4,a5
80001ca8:	0007c603          	lbu	a2,0(a5)
80001cac:	fdf44783          	lbu	a5,-33(s0)
80001cb0:	00279713          	slli	a4,a5,0x2
80001cb4:	fef44783          	lbu	a5,-17(s0)
80001cb8:	00f707b3          	add	a5,a4,a5
80001cbc:	00279713          	slli	a4,a5,0x2
80001cc0:	fee44783          	lbu	a5,-18(s0)
80001cc4:	00f707b3          	add	a5,a4,a5
80001cc8:	00078713          	mv	a4,a5
80001ccc:	fd442783          	lw	a5,-44(s0)
80001cd0:	00e787b3          	add	a5,a5,a4
80001cd4:	0007c703          	lbu	a4,0(a5)
80001cd8:	fef44683          	lbu	a3,-17(s0)
80001cdc:	fee44783          	lbu	a5,-18(s0)
80001ce0:	00e64733          	xor	a4,a2,a4
80001ce4:	0ff77713          	andi	a4,a4,255
80001ce8:	fd842603          	lw	a2,-40(s0)
80001cec:	00269693          	slli	a3,a3,0x2
80001cf0:	00d606b3          	add	a3,a2,a3
80001cf4:	00f687b3          	add	a5,a3,a5
80001cf8:	00e78023          	sb	a4,0(a5)
80001cfc:	fee44783          	lbu	a5,-18(s0)
80001d00:	00178793          	addi	a5,a5,1
80001d04:	fef40723          	sb	a5,-18(s0)
80001d08:	fee44703          	lbu	a4,-18(s0)
80001d0c:	00300793          	li	a5,3
80001d10:	f8e7f0e3          	bgeu	a5,a4,80001c90 <AddRoundKey+0x2c>
80001d14:	fef44783          	lbu	a5,-17(s0)
80001d18:	00178793          	addi	a5,a5,1
80001d1c:	fef407a3          	sb	a5,-17(s0)
80001d20:	fef44703          	lbu	a4,-17(s0)
80001d24:	00300793          	li	a5,3
80001d28:	f6e7f0e3          	bgeu	a5,a4,80001c88 <AddRoundKey+0x24>
80001d2c:	00000013          	nop
80001d30:	00000013          	nop
80001d34:	02c12403          	lw	s0,44(sp)
80001d38:	03010113          	addi	sp,sp,48
80001d3c:	00008067          	ret

80001d40 <SubBytes>:
80001d40:	fd010113          	addi	sp,sp,-48
80001d44:	02812623          	sw	s0,44(sp)
80001d48:	03010413          	addi	s0,sp,48
80001d4c:	fca42e23          	sw	a0,-36(s0)
80001d50:	fe0407a3          	sb	zero,-17(s0)
80001d54:	07c0006f          	j	80001dd0 <SubBytes+0x90>
80001d58:	fe040723          	sb	zero,-18(s0)
80001d5c:	05c0006f          	j	80001db8 <SubBytes+0x78>
80001d60:	fee44703          	lbu	a4,-18(s0)
80001d64:	fef44783          	lbu	a5,-17(s0)
80001d68:	fdc42683          	lw	a3,-36(s0)
80001d6c:	00271713          	slli	a4,a4,0x2
80001d70:	00e68733          	add	a4,a3,a4
80001d74:	00f707b3          	add	a5,a4,a5
80001d78:	0007c783          	lbu	a5,0(a5)
80001d7c:	00078613          	mv	a2,a5
80001d80:	fee44683          	lbu	a3,-18(s0)
80001d84:	fef44783          	lbu	a5,-17(s0)
80001d88:	00003717          	auipc	a4,0x3
80001d8c:	da070713          	addi	a4,a4,-608 # 80004b28 <sbox>
80001d90:	00c70733          	add	a4,a4,a2
80001d94:	00074703          	lbu	a4,0(a4)
80001d98:	fdc42603          	lw	a2,-36(s0)
80001d9c:	00269693          	slli	a3,a3,0x2
80001da0:	00d606b3          	add	a3,a2,a3
80001da4:	00f687b3          	add	a5,a3,a5
80001da8:	00e78023          	sb	a4,0(a5)
80001dac:	fee44783          	lbu	a5,-18(s0)
80001db0:	00178793          	addi	a5,a5,1
80001db4:	fef40723          	sb	a5,-18(s0)
80001db8:	fee44703          	lbu	a4,-18(s0)
80001dbc:	00300793          	li	a5,3
80001dc0:	fae7f0e3          	bgeu	a5,a4,80001d60 <SubBytes+0x20>
80001dc4:	fef44783          	lbu	a5,-17(s0)
80001dc8:	00178793          	addi	a5,a5,1
80001dcc:	fef407a3          	sb	a5,-17(s0)
80001dd0:	fef44703          	lbu	a4,-17(s0)
80001dd4:	00300793          	li	a5,3
80001dd8:	f8e7f0e3          	bgeu	a5,a4,80001d58 <SubBytes+0x18>
80001ddc:	00000013          	nop
80001de0:	00000013          	nop
80001de4:	02c12403          	lw	s0,44(sp)
80001de8:	03010113          	addi	sp,sp,48
80001dec:	00008067          	ret

80001df0 <ShiftRows>:
80001df0:	fd010113          	addi	sp,sp,-48
80001df4:	02812623          	sw	s0,44(sp)
80001df8:	03010413          	addi	s0,sp,48
80001dfc:	fca42e23          	sw	a0,-36(s0)
80001e00:	fdc42783          	lw	a5,-36(s0)
80001e04:	0017c783          	lbu	a5,1(a5)
80001e08:	fef407a3          	sb	a5,-17(s0)
80001e0c:	fdc42783          	lw	a5,-36(s0)
80001e10:	0057c703          	lbu	a4,5(a5)
80001e14:	fdc42783          	lw	a5,-36(s0)
80001e18:	00e780a3          	sb	a4,1(a5)
80001e1c:	fdc42783          	lw	a5,-36(s0)
80001e20:	0097c703          	lbu	a4,9(a5)
80001e24:	fdc42783          	lw	a5,-36(s0)
80001e28:	00e782a3          	sb	a4,5(a5)
80001e2c:	fdc42783          	lw	a5,-36(s0)
80001e30:	00d7c703          	lbu	a4,13(a5)
80001e34:	fdc42783          	lw	a5,-36(s0)
80001e38:	00e784a3          	sb	a4,9(a5)
80001e3c:	fdc42783          	lw	a5,-36(s0)
80001e40:	fef44703          	lbu	a4,-17(s0)
80001e44:	00e786a3          	sb	a4,13(a5)
80001e48:	fdc42783          	lw	a5,-36(s0)
80001e4c:	0027c783          	lbu	a5,2(a5)
80001e50:	fef407a3          	sb	a5,-17(s0)
80001e54:	fdc42783          	lw	a5,-36(s0)
80001e58:	00a7c703          	lbu	a4,10(a5)
80001e5c:	fdc42783          	lw	a5,-36(s0)
80001e60:	00e78123          	sb	a4,2(a5)
80001e64:	fdc42783          	lw	a5,-36(s0)
80001e68:	fef44703          	lbu	a4,-17(s0)
80001e6c:	00e78523          	sb	a4,10(a5)
80001e70:	fdc42783          	lw	a5,-36(s0)
80001e74:	0067c783          	lbu	a5,6(a5)
80001e78:	fef407a3          	sb	a5,-17(s0)
80001e7c:	fdc42783          	lw	a5,-36(s0)
80001e80:	00e7c703          	lbu	a4,14(a5)
80001e84:	fdc42783          	lw	a5,-36(s0)
80001e88:	00e78323          	sb	a4,6(a5)
80001e8c:	fdc42783          	lw	a5,-36(s0)
80001e90:	fef44703          	lbu	a4,-17(s0)
80001e94:	00e78723          	sb	a4,14(a5)
80001e98:	fdc42783          	lw	a5,-36(s0)
80001e9c:	0037c783          	lbu	a5,3(a5)
80001ea0:	fef407a3          	sb	a5,-17(s0)
80001ea4:	fdc42783          	lw	a5,-36(s0)
80001ea8:	00f7c703          	lbu	a4,15(a5)
80001eac:	fdc42783          	lw	a5,-36(s0)
80001eb0:	00e781a3          	sb	a4,3(a5)
80001eb4:	fdc42783          	lw	a5,-36(s0)
80001eb8:	00b7c703          	lbu	a4,11(a5)
80001ebc:	fdc42783          	lw	a5,-36(s0)
80001ec0:	00e787a3          	sb	a4,15(a5)
80001ec4:	fdc42783          	lw	a5,-36(s0)
80001ec8:	0077c703          	lbu	a4,7(a5)
80001ecc:	fdc42783          	lw	a5,-36(s0)
80001ed0:	00e785a3          	sb	a4,11(a5)
80001ed4:	fdc42783          	lw	a5,-36(s0)
80001ed8:	fef44703          	lbu	a4,-17(s0)
80001edc:	00e783a3          	sb	a4,7(a5)
80001ee0:	00000013          	nop
80001ee4:	02c12403          	lw	s0,44(sp)
80001ee8:	03010113          	addi	sp,sp,48
80001eec:	00008067          	ret

80001ef0 <xtime>:
80001ef0:	fe010113          	addi	sp,sp,-32
80001ef4:	00812e23          	sw	s0,28(sp)
80001ef8:	02010413          	addi	s0,sp,32
80001efc:	00050793          	mv	a5,a0
80001f00:	fef407a3          	sb	a5,-17(s0)
80001f04:	fef44783          	lbu	a5,-17(s0)
80001f08:	00179793          	slli	a5,a5,0x1
80001f0c:	01879693          	slli	a3,a5,0x18
80001f10:	4186d693          	srai	a3,a3,0x18
80001f14:	fef44783          	lbu	a5,-17(s0)
80001f18:	0077d793          	srli	a5,a5,0x7
80001f1c:	0ff7f793          	andi	a5,a5,255
80001f20:	00078713          	mv	a4,a5
80001f24:	00371713          	slli	a4,a4,0x3
80001f28:	40f70733          	sub	a4,a4,a5
80001f2c:	00271713          	slli	a4,a4,0x2
80001f30:	40f707b3          	sub	a5,a4,a5
80001f34:	0ff7f793          	andi	a5,a5,255
80001f38:	01879793          	slli	a5,a5,0x18
80001f3c:	4187d793          	srai	a5,a5,0x18
80001f40:	00f6c7b3          	xor	a5,a3,a5
80001f44:	01879793          	slli	a5,a5,0x18
80001f48:	4187d793          	srai	a5,a5,0x18
80001f4c:	0ff7f793          	andi	a5,a5,255
80001f50:	00078513          	mv	a0,a5
80001f54:	01c12403          	lw	s0,28(sp)
80001f58:	02010113          	addi	sp,sp,32
80001f5c:	00008067          	ret

80001f60 <MixColumns>:
80001f60:	fd010113          	addi	sp,sp,-48
80001f64:	02112623          	sw	ra,44(sp)
80001f68:	02812423          	sw	s0,40(sp)
80001f6c:	03010413          	addi	s0,sp,48
80001f70:	fca42e23          	sw	a0,-36(s0)
80001f74:	fe0407a3          	sb	zero,-17(s0)
80001f78:	2900006f          	j	80002208 <MixColumns+0x2a8>
80001f7c:	fef44783          	lbu	a5,-17(s0)
80001f80:	fdc42703          	lw	a4,-36(s0)
80001f84:	00279793          	slli	a5,a5,0x2
80001f88:	00f707b3          	add	a5,a4,a5
80001f8c:	0007c783          	lbu	a5,0(a5)
80001f90:	fef40723          	sb	a5,-18(s0)
80001f94:	fef44783          	lbu	a5,-17(s0)
80001f98:	fdc42703          	lw	a4,-36(s0)
80001f9c:	00279793          	slli	a5,a5,0x2
80001fa0:	00f707b3          	add	a5,a4,a5
80001fa4:	0007c703          	lbu	a4,0(a5)
80001fa8:	fef44783          	lbu	a5,-17(s0)
80001fac:	fdc42683          	lw	a3,-36(s0)
80001fb0:	00279793          	slli	a5,a5,0x2
80001fb4:	00f687b3          	add	a5,a3,a5
80001fb8:	0017c783          	lbu	a5,1(a5)
80001fbc:	00f747b3          	xor	a5,a4,a5
80001fc0:	0ff7f713          	andi	a4,a5,255
80001fc4:	fef44783          	lbu	a5,-17(s0)
80001fc8:	fdc42683          	lw	a3,-36(s0)
80001fcc:	00279793          	slli	a5,a5,0x2
80001fd0:	00f687b3          	add	a5,a3,a5
80001fd4:	0027c783          	lbu	a5,2(a5)
80001fd8:	00f747b3          	xor	a5,a4,a5
80001fdc:	0ff7f713          	andi	a4,a5,255
80001fe0:	fef44783          	lbu	a5,-17(s0)
80001fe4:	fdc42683          	lw	a3,-36(s0)
80001fe8:	00279793          	slli	a5,a5,0x2
80001fec:	00f687b3          	add	a5,a3,a5
80001ff0:	0037c783          	lbu	a5,3(a5)
80001ff4:	00f747b3          	xor	a5,a4,a5
80001ff8:	fef406a3          	sb	a5,-19(s0)
80001ffc:	fef44783          	lbu	a5,-17(s0)
80002000:	fdc42703          	lw	a4,-36(s0)
80002004:	00279793          	slli	a5,a5,0x2
80002008:	00f707b3          	add	a5,a4,a5
8000200c:	0007c703          	lbu	a4,0(a5)
80002010:	fef44783          	lbu	a5,-17(s0)
80002014:	fdc42683          	lw	a3,-36(s0)
80002018:	00279793          	slli	a5,a5,0x2
8000201c:	00f687b3          	add	a5,a3,a5
80002020:	0017c783          	lbu	a5,1(a5)
80002024:	00f747b3          	xor	a5,a4,a5
80002028:	fef40623          	sb	a5,-20(s0)
8000202c:	fec44783          	lbu	a5,-20(s0)
80002030:	00078513          	mv	a0,a5
80002034:	ebdff0ef          	jal	ra,80001ef0 <xtime>
80002038:	00050793          	mv	a5,a0
8000203c:	fef40623          	sb	a5,-20(s0)
80002040:	fef44783          	lbu	a5,-17(s0)
80002044:	fdc42703          	lw	a4,-36(s0)
80002048:	00279793          	slli	a5,a5,0x2
8000204c:	00f707b3          	add	a5,a4,a5
80002050:	0007c683          	lbu	a3,0(a5)
80002054:	fec44703          	lbu	a4,-20(s0)
80002058:	fed44783          	lbu	a5,-19(s0)
8000205c:	00f747b3          	xor	a5,a4,a5
80002060:	0ff7f713          	andi	a4,a5,255
80002064:	fef44783          	lbu	a5,-17(s0)
80002068:	00e6c733          	xor	a4,a3,a4
8000206c:	0ff77713          	andi	a4,a4,255
80002070:	fdc42683          	lw	a3,-36(s0)
80002074:	00279793          	slli	a5,a5,0x2
80002078:	00f687b3          	add	a5,a3,a5
8000207c:	00e78023          	sb	a4,0(a5)
80002080:	fef44783          	lbu	a5,-17(s0)
80002084:	fdc42703          	lw	a4,-36(s0)
80002088:	00279793          	slli	a5,a5,0x2
8000208c:	00f707b3          	add	a5,a4,a5
80002090:	0017c703          	lbu	a4,1(a5)
80002094:	fef44783          	lbu	a5,-17(s0)
80002098:	fdc42683          	lw	a3,-36(s0)
8000209c:	00279793          	slli	a5,a5,0x2
800020a0:	00f687b3          	add	a5,a3,a5
800020a4:	0027c783          	lbu	a5,2(a5)
800020a8:	00f747b3          	xor	a5,a4,a5
800020ac:	fef40623          	sb	a5,-20(s0)
800020b0:	fec44783          	lbu	a5,-20(s0)
800020b4:	00078513          	mv	a0,a5
800020b8:	e39ff0ef          	jal	ra,80001ef0 <xtime>
800020bc:	00050793          	mv	a5,a0
800020c0:	fef40623          	sb	a5,-20(s0)
800020c4:	fef44783          	lbu	a5,-17(s0)
800020c8:	fdc42703          	lw	a4,-36(s0)
800020cc:	00279793          	slli	a5,a5,0x2
800020d0:	00f707b3          	add	a5,a4,a5
800020d4:	0017c683          	lbu	a3,1(a5)
800020d8:	fec44703          	lbu	a4,-20(s0)
800020dc:	fed44783          	lbu	a5,-19(s0)
800020e0:	00f747b3          	xor	a5,a4,a5
800020e4:	0ff7f713          	andi	a4,a5,255
800020e8:	fef44783          	lbu	a5,-17(s0)
800020ec:	00e6c733          	xor	a4,a3,a4
800020f0:	0ff77713          	andi	a4,a4,255
800020f4:	fdc42683          	lw	a3,-36(s0)
800020f8:	00279793          	slli	a5,a5,0x2
800020fc:	00f687b3          	add	a5,a3,a5
80002100:	00e780a3          	sb	a4,1(a5)
80002104:	fef44783          	lbu	a5,-17(s0)
80002108:	fdc42703          	lw	a4,-36(s0)
8000210c:	00279793          	slli	a5,a5,0x2
80002110:	00f707b3          	add	a5,a4,a5
80002114:	0027c703          	lbu	a4,2(a5)
80002118:	fef44783          	lbu	a5,-17(s0)
8000211c:	fdc42683          	lw	a3,-36(s0)
80002120:	00279793          	slli	a5,a5,0x2
80002124:	00f687b3          	add	a5,a3,a5
80002128:	0037c783          	lbu	a5,3(a5)
8000212c:	00f747b3          	xor	a5,a4,a5
80002130:	fef40623          	sb	a5,-20(s0)
80002134:	fec44783          	lbu	a5,-20(s0)
80002138:	00078513          	mv	a0,a5
8000213c:	db5ff0ef          	jal	ra,80001ef0 <xtime>
80002140:	00050793          	mv	a5,a0
80002144:	fef40623          	sb	a5,-20(s0)
80002148:	fef44783          	lbu	a5,-17(s0)
8000214c:	fdc42703          	lw	a4,-36(s0)
80002150:	00279793          	slli	a5,a5,0x2
80002154:	00f707b3          	add	a5,a4,a5
80002158:	0027c683          	lbu	a3,2(a5)
8000215c:	fec44703          	lbu	a4,-20(s0)
80002160:	fed44783          	lbu	a5,-19(s0)
80002164:	00f747b3          	xor	a5,a4,a5
80002168:	0ff7f713          	andi	a4,a5,255
8000216c:	fef44783          	lbu	a5,-17(s0)
80002170:	00e6c733          	xor	a4,a3,a4
80002174:	0ff77713          	andi	a4,a4,255
80002178:	fdc42683          	lw	a3,-36(s0)
8000217c:	00279793          	slli	a5,a5,0x2
80002180:	00f687b3          	add	a5,a3,a5
80002184:	00e78123          	sb	a4,2(a5)
80002188:	fef44783          	lbu	a5,-17(s0)
8000218c:	fdc42703          	lw	a4,-36(s0)
80002190:	00279793          	slli	a5,a5,0x2
80002194:	00f707b3          	add	a5,a4,a5
80002198:	0037c703          	lbu	a4,3(a5)
8000219c:	fee44783          	lbu	a5,-18(s0)
800021a0:	00f747b3          	xor	a5,a4,a5
800021a4:	fef40623          	sb	a5,-20(s0)
800021a8:	fec44783          	lbu	a5,-20(s0)
800021ac:	00078513          	mv	a0,a5
800021b0:	d41ff0ef          	jal	ra,80001ef0 <xtime>
800021b4:	00050793          	mv	a5,a0
800021b8:	fef40623          	sb	a5,-20(s0)
800021bc:	fef44783          	lbu	a5,-17(s0)
800021c0:	fdc42703          	lw	a4,-36(s0)
800021c4:	00279793          	slli	a5,a5,0x2
800021c8:	00f707b3          	add	a5,a4,a5
800021cc:	0037c683          	lbu	a3,3(a5)
800021d0:	fec44703          	lbu	a4,-20(s0)
800021d4:	fed44783          	lbu	a5,-19(s0)
800021d8:	00f747b3          	xor	a5,a4,a5
800021dc:	0ff7f713          	andi	a4,a5,255
800021e0:	fef44783          	lbu	a5,-17(s0)
800021e4:	00e6c733          	xor	a4,a3,a4
800021e8:	0ff77713          	andi	a4,a4,255
800021ec:	fdc42683          	lw	a3,-36(s0)
800021f0:	00279793          	slli	a5,a5,0x2
800021f4:	00f687b3          	add	a5,a3,a5
800021f8:	00e781a3          	sb	a4,3(a5)
800021fc:	fef44783          	lbu	a5,-17(s0)
80002200:	00178793          	addi	a5,a5,1
80002204:	fef407a3          	sb	a5,-17(s0)
80002208:	fef44703          	lbu	a4,-17(s0)
8000220c:	00300793          	li	a5,3
80002210:	d6e7f6e3          	bgeu	a5,a4,80001f7c <MixColumns+0x1c>
80002214:	00000013          	nop
80002218:	00000013          	nop
8000221c:	02c12083          	lw	ra,44(sp)
80002220:	02812403          	lw	s0,40(sp)
80002224:	03010113          	addi	sp,sp,48
80002228:	00008067          	ret

8000222c <Cipher>:
8000222c:	fd010113          	addi	sp,sp,-48
80002230:	02112623          	sw	ra,44(sp)
80002234:	02812423          	sw	s0,40(sp)
80002238:	03010413          	addi	s0,sp,48
8000223c:	fca42e23          	sw	a0,-36(s0)
80002240:	fcb42c23          	sw	a1,-40(s0)
80002244:	fe0407a3          	sb	zero,-17(s0)
80002248:	fd842603          	lw	a2,-40(s0)
8000224c:	fdc42583          	lw	a1,-36(s0)
80002250:	00000513          	li	a0,0
80002254:	a11ff0ef          	jal	ra,80001c64 <AddRoundKey>
80002258:	00100793          	li	a5,1
8000225c:	fef407a3          	sb	a5,-17(s0)
80002260:	fdc42503          	lw	a0,-36(s0)
80002264:	addff0ef          	jal	ra,80001d40 <SubBytes>
80002268:	fdc42503          	lw	a0,-36(s0)
8000226c:	b85ff0ef          	jal	ra,80001df0 <ShiftRows>
80002270:	fef44703          	lbu	a4,-17(s0)
80002274:	00a00793          	li	a5,10
80002278:	02f70863          	beq	a4,a5,800022a8 <Cipher+0x7c>
8000227c:	fdc42503          	lw	a0,-36(s0)
80002280:	ce1ff0ef          	jal	ra,80001f60 <MixColumns>
80002284:	fef44783          	lbu	a5,-17(s0)
80002288:	fd842603          	lw	a2,-40(s0)
8000228c:	fdc42583          	lw	a1,-36(s0)
80002290:	00078513          	mv	a0,a5
80002294:	9d1ff0ef          	jal	ra,80001c64 <AddRoundKey>
80002298:	fef44783          	lbu	a5,-17(s0)
8000229c:	00178793          	addi	a5,a5,1
800022a0:	fef407a3          	sb	a5,-17(s0)
800022a4:	fbdff06f          	j	80002260 <Cipher+0x34>
800022a8:	00000013          	nop
800022ac:	fd842603          	lw	a2,-40(s0)
800022b0:	fdc42583          	lw	a1,-36(s0)
800022b4:	00a00513          	li	a0,10
800022b8:	9adff0ef          	jal	ra,80001c64 <AddRoundKey>
800022bc:	00000013          	nop
800022c0:	02c12083          	lw	ra,44(sp)
800022c4:	02812403          	lw	s0,40(sp)
800022c8:	03010113          	addi	sp,sp,48
800022cc:	00008067          	ret

800022d0 <AES_ECB_encrypt>:
800022d0:	fe010113          	addi	sp,sp,-32
800022d4:	00112e23          	sw	ra,28(sp)
800022d8:	00812c23          	sw	s0,24(sp)
800022dc:	02010413          	addi	s0,sp,32
800022e0:	fea42623          	sw	a0,-20(s0)
800022e4:	feb42423          	sw	a1,-24(s0)
800022e8:	fec42783          	lw	a5,-20(s0)
800022ec:	00078593          	mv	a1,a5
800022f0:	fe842503          	lw	a0,-24(s0)
800022f4:	f39ff0ef          	jal	ra,8000222c <Cipher>
800022f8:	00000013          	nop
800022fc:	01c12083          	lw	ra,28(sp)
80002300:	01812403          	lw	s0,24(sp)
80002304:	02010113          	addi	sp,sp,32
80002308:	00008067          	ret

8000230c <__udivdi3>:
8000230c:	fd010113          	addi	sp,sp,-48
80002310:	02812423          	sw	s0,40(sp)
80002314:	01712623          	sw	s7,12(sp)
80002318:	02112623          	sw	ra,44(sp)
8000231c:	02912223          	sw	s1,36(sp)
80002320:	03212023          	sw	s2,32(sp)
80002324:	01312e23          	sw	s3,28(sp)
80002328:	01412c23          	sw	s4,24(sp)
8000232c:	01512a23          	sw	s5,20(sp)
80002330:	01612823          	sw	s6,16(sp)
80002334:	01812423          	sw	s8,8(sp)
80002338:	01912223          	sw	s9,4(sp)
8000233c:	00050b93          	mv	s7,a0
80002340:	00058413          	mv	s0,a1
80002344:	38069c63          	bnez	a3,800026dc <__udivdi3+0x3d0>
80002348:	00060913          	mv	s2,a2
8000234c:	00050a13          	mv	s4,a0
80002350:	00003497          	auipc	s1,0x3
80002354:	8e448493          	addi	s1,s1,-1820 # 80004c34 <__clz_tab>
80002358:	12c5f863          	bgeu	a1,a2,80002488 <__udivdi3+0x17c>
8000235c:	000107b7          	lui	a5,0x10
80002360:	00058c13          	mv	s8,a1
80002364:	10f67863          	bgeu	a2,a5,80002474 <__udivdi3+0x168>
80002368:	0ff00793          	li	a5,255
8000236c:	00c7b7b3          	sltu	a5,a5,a2
80002370:	00379793          	slli	a5,a5,0x3
80002374:	00f65733          	srl	a4,a2,a5
80002378:	00e484b3          	add	s1,s1,a4
8000237c:	0004c703          	lbu	a4,0(s1)
80002380:	02000693          	li	a3,32
80002384:	00f707b3          	add	a5,a4,a5
80002388:	40f68733          	sub	a4,a3,a5
8000238c:	00f68c63          	beq	a3,a5,800023a4 <__udivdi3+0x98>
80002390:	00e41433          	sll	s0,s0,a4
80002394:	00fbd7b3          	srl	a5,s7,a5
80002398:	00e61933          	sll	s2,a2,a4
8000239c:	0087ec33          	or	s8,a5,s0
800023a0:	00eb9a33          	sll	s4,s7,a4
800023a4:	01095b13          	srli	s6,s2,0x10
800023a8:	000b0593          	mv	a1,s6
800023ac:	000c0513          	mv	a0,s8
800023b0:	5a8000ef          	jal	ra,80002958 <__umodsi3>
800023b4:	00050493          	mv	s1,a0
800023b8:	000b0593          	mv	a1,s6
800023bc:	01091a93          	slli	s5,s2,0x10
800023c0:	000c0513          	mv	a0,s8
800023c4:	54c000ef          	jal	ra,80002910 <__udivsi3>
800023c8:	010ada93          	srli	s5,s5,0x10
800023cc:	00050413          	mv	s0,a0
800023d0:	00050593          	mv	a1,a0
800023d4:	000a8513          	mv	a0,s5
800023d8:	50c000ef          	jal	ra,800028e4 <__mulsi3>
800023dc:	01049493          	slli	s1,s1,0x10
800023e0:	010a5713          	srli	a4,s4,0x10
800023e4:	00e4e733          	or	a4,s1,a4
800023e8:	00040993          	mv	s3,s0
800023ec:	00a77e63          	bgeu	a4,a0,80002408 <__udivdi3+0xfc>
800023f0:	01270733          	add	a4,a4,s2
800023f4:	fff40993          	addi	s3,s0,-1
800023f8:	01276863          	bltu	a4,s2,80002408 <__udivdi3+0xfc>
800023fc:	00a77663          	bgeu	a4,a0,80002408 <__udivdi3+0xfc>
80002400:	ffe40993          	addi	s3,s0,-2
80002404:	01270733          	add	a4,a4,s2
80002408:	40a70433          	sub	s0,a4,a0
8000240c:	000b0593          	mv	a1,s6
80002410:	00040513          	mv	a0,s0
80002414:	544000ef          	jal	ra,80002958 <__umodsi3>
80002418:	00050493          	mv	s1,a0
8000241c:	000b0593          	mv	a1,s6
80002420:	00040513          	mv	a0,s0
80002424:	4ec000ef          	jal	ra,80002910 <__udivsi3>
80002428:	010a1a13          	slli	s4,s4,0x10
8000242c:	00050413          	mv	s0,a0
80002430:	00050593          	mv	a1,a0
80002434:	01049493          	slli	s1,s1,0x10
80002438:	000a8513          	mv	a0,s5
8000243c:	010a5a13          	srli	s4,s4,0x10
80002440:	4a4000ef          	jal	ra,800028e4 <__mulsi3>
80002444:	0144ea33          	or	s4,s1,s4
80002448:	00040613          	mv	a2,s0
8000244c:	00aa7c63          	bgeu	s4,a0,80002464 <__udivdi3+0x158>
80002450:	01490a33          	add	s4,s2,s4
80002454:	fff40613          	addi	a2,s0,-1
80002458:	012a6663          	bltu	s4,s2,80002464 <__udivdi3+0x158>
8000245c:	00aa7463          	bgeu	s4,a0,80002464 <__udivdi3+0x158>
80002460:	ffe40613          	addi	a2,s0,-2
80002464:	01099793          	slli	a5,s3,0x10
80002468:	00c7e7b3          	or	a5,a5,a2
8000246c:	00000993          	li	s3,0
80002470:	1300006f          	j	800025a0 <__udivdi3+0x294>
80002474:	01000737          	lui	a4,0x1000
80002478:	01000793          	li	a5,16
8000247c:	eee66ce3          	bltu	a2,a4,80002374 <__udivdi3+0x68>
80002480:	01800793          	li	a5,24
80002484:	ef1ff06f          	j	80002374 <__udivdi3+0x68>
80002488:	00068993          	mv	s3,a3
8000248c:	00061a63          	bnez	a2,800024a0 <__udivdi3+0x194>
80002490:	00000593          	li	a1,0
80002494:	00100513          	li	a0,1
80002498:	478000ef          	jal	ra,80002910 <__udivsi3>
8000249c:	00050913          	mv	s2,a0
800024a0:	000107b7          	lui	a5,0x10
800024a4:	12f97c63          	bgeu	s2,a5,800025dc <__udivdi3+0x2d0>
800024a8:	0ff00793          	li	a5,255
800024ac:	0127f463          	bgeu	a5,s2,800024b4 <__udivdi3+0x1a8>
800024b0:	00800993          	li	s3,8
800024b4:	013957b3          	srl	a5,s2,s3
800024b8:	00f484b3          	add	s1,s1,a5
800024bc:	0004c783          	lbu	a5,0(s1)
800024c0:	02000693          	li	a3,32
800024c4:	013787b3          	add	a5,a5,s3
800024c8:	40f68733          	sub	a4,a3,a5
800024cc:	12f69263          	bne	a3,a5,800025f0 <__udivdi3+0x2e4>
800024d0:	41240433          	sub	s0,s0,s2
800024d4:	00100993          	li	s3,1
800024d8:	01095a93          	srli	s5,s2,0x10
800024dc:	000a8593          	mv	a1,s5
800024e0:	00040513          	mv	a0,s0
800024e4:	474000ef          	jal	ra,80002958 <__umodsi3>
800024e8:	00050493          	mv	s1,a0
800024ec:	000a8593          	mv	a1,s5
800024f0:	00040513          	mv	a0,s0
800024f4:	01091b13          	slli	s6,s2,0x10
800024f8:	418000ef          	jal	ra,80002910 <__udivsi3>
800024fc:	010b5b13          	srli	s6,s6,0x10
80002500:	00050413          	mv	s0,a0
80002504:	00050593          	mv	a1,a0
80002508:	000b0513          	mv	a0,s6
8000250c:	3d8000ef          	jal	ra,800028e4 <__mulsi3>
80002510:	01049493          	slli	s1,s1,0x10
80002514:	010a5713          	srli	a4,s4,0x10
80002518:	00e4e733          	or	a4,s1,a4
8000251c:	00040b93          	mv	s7,s0
80002520:	00a77e63          	bgeu	a4,a0,8000253c <__udivdi3+0x230>
80002524:	01270733          	add	a4,a4,s2
80002528:	fff40b93          	addi	s7,s0,-1
8000252c:	01276863          	bltu	a4,s2,8000253c <__udivdi3+0x230>
80002530:	00a77663          	bgeu	a4,a0,8000253c <__udivdi3+0x230>
80002534:	ffe40b93          	addi	s7,s0,-2
80002538:	01270733          	add	a4,a4,s2
8000253c:	40a70433          	sub	s0,a4,a0
80002540:	000a8593          	mv	a1,s5
80002544:	00040513          	mv	a0,s0
80002548:	410000ef          	jal	ra,80002958 <__umodsi3>
8000254c:	00050493          	mv	s1,a0
80002550:	000a8593          	mv	a1,s5
80002554:	00040513          	mv	a0,s0
80002558:	3b8000ef          	jal	ra,80002910 <__udivsi3>
8000255c:	010a1a13          	slli	s4,s4,0x10
80002560:	00050413          	mv	s0,a0
80002564:	00050593          	mv	a1,a0
80002568:	01049493          	slli	s1,s1,0x10
8000256c:	000b0513          	mv	a0,s6
80002570:	010a5a13          	srli	s4,s4,0x10
80002574:	370000ef          	jal	ra,800028e4 <__mulsi3>
80002578:	0144ea33          	or	s4,s1,s4
8000257c:	00040613          	mv	a2,s0
80002580:	00aa7c63          	bgeu	s4,a0,80002598 <__udivdi3+0x28c>
80002584:	01490a33          	add	s4,s2,s4
80002588:	fff40613          	addi	a2,s0,-1
8000258c:	012a6663          	bltu	s4,s2,80002598 <__udivdi3+0x28c>
80002590:	00aa7463          	bgeu	s4,a0,80002598 <__udivdi3+0x28c>
80002594:	ffe40613          	addi	a2,s0,-2
80002598:	010b9793          	slli	a5,s7,0x10
8000259c:	00c7e7b3          	or	a5,a5,a2
800025a0:	00078513          	mv	a0,a5
800025a4:	00098593          	mv	a1,s3
800025a8:	02c12083          	lw	ra,44(sp)
800025ac:	02812403          	lw	s0,40(sp)
800025b0:	02412483          	lw	s1,36(sp)
800025b4:	02012903          	lw	s2,32(sp)
800025b8:	01c12983          	lw	s3,28(sp)
800025bc:	01812a03          	lw	s4,24(sp)
800025c0:	01412a83          	lw	s5,20(sp)
800025c4:	01012b03          	lw	s6,16(sp)
800025c8:	00c12b83          	lw	s7,12(sp)
800025cc:	00812c03          	lw	s8,8(sp)
800025d0:	00412c83          	lw	s9,4(sp)
800025d4:	03010113          	addi	sp,sp,48
800025d8:	00008067          	ret
800025dc:	010007b7          	lui	a5,0x1000
800025e0:	01000993          	li	s3,16
800025e4:	ecf968e3          	bltu	s2,a5,800024b4 <__udivdi3+0x1a8>
800025e8:	01800993          	li	s3,24
800025ec:	ec9ff06f          	j	800024b4 <__udivdi3+0x1a8>
800025f0:	00e91933          	sll	s2,s2,a4
800025f4:	00f459b3          	srl	s3,s0,a5
800025f8:	00fbd7b3          	srl	a5,s7,a5
800025fc:	00e41433          	sll	s0,s0,a4
80002600:	0087eb33          	or	s6,a5,s0
80002604:	01095413          	srli	s0,s2,0x10
80002608:	00040593          	mv	a1,s0
8000260c:	00098513          	mv	a0,s3
80002610:	00eb9a33          	sll	s4,s7,a4
80002614:	344000ef          	jal	ra,80002958 <__umodsi3>
80002618:	00050493          	mv	s1,a0
8000261c:	00040593          	mv	a1,s0
80002620:	00098513          	mv	a0,s3
80002624:	01091b93          	slli	s7,s2,0x10
80002628:	2e8000ef          	jal	ra,80002910 <__udivsi3>
8000262c:	010bdb93          	srli	s7,s7,0x10
80002630:	00050a93          	mv	s5,a0
80002634:	00050593          	mv	a1,a0
80002638:	000b8513          	mv	a0,s7
8000263c:	2a8000ef          	jal	ra,800028e4 <__mulsi3>
80002640:	01049493          	slli	s1,s1,0x10
80002644:	010b5793          	srli	a5,s6,0x10
80002648:	00f4e7b3          	or	a5,s1,a5
8000264c:	000a8993          	mv	s3,s5
80002650:	00a7fe63          	bgeu	a5,a0,8000266c <__udivdi3+0x360>
80002654:	012787b3          	add	a5,a5,s2
80002658:	fffa8993          	addi	s3,s5,-1
8000265c:	0127e863          	bltu	a5,s2,8000266c <__udivdi3+0x360>
80002660:	00a7f663          	bgeu	a5,a0,8000266c <__udivdi3+0x360>
80002664:	ffea8993          	addi	s3,s5,-2
80002668:	012787b3          	add	a5,a5,s2
8000266c:	40a78ab3          	sub	s5,a5,a0
80002670:	00040593          	mv	a1,s0
80002674:	000a8513          	mv	a0,s5
80002678:	2e0000ef          	jal	ra,80002958 <__umodsi3>
8000267c:	00040593          	mv	a1,s0
80002680:	00050493          	mv	s1,a0
80002684:	000a8513          	mv	a0,s5
80002688:	288000ef          	jal	ra,80002910 <__udivsi3>
8000268c:	010b1413          	slli	s0,s6,0x10
80002690:	00050a93          	mv	s5,a0
80002694:	00050593          	mv	a1,a0
80002698:	01049493          	slli	s1,s1,0x10
8000269c:	000b8513          	mv	a0,s7
800026a0:	01045413          	srli	s0,s0,0x10
800026a4:	240000ef          	jal	ra,800028e4 <__mulsi3>
800026a8:	0084e433          	or	s0,s1,s0
800026ac:	000a8793          	mv	a5,s5
800026b0:	00a47e63          	bgeu	s0,a0,800026cc <__udivdi3+0x3c0>
800026b4:	01240433          	add	s0,s0,s2
800026b8:	fffa8793          	addi	a5,s5,-1
800026bc:	01246863          	bltu	s0,s2,800026cc <__udivdi3+0x3c0>
800026c0:	00a47663          	bgeu	s0,a0,800026cc <__udivdi3+0x3c0>
800026c4:	ffea8793          	addi	a5,s5,-2
800026c8:	01240433          	add	s0,s0,s2
800026cc:	01099993          	slli	s3,s3,0x10
800026d0:	40a40433          	sub	s0,s0,a0
800026d4:	00f9e9b3          	or	s3,s3,a5
800026d8:	e01ff06f          	j	800024d8 <__udivdi3+0x1cc>
800026dc:	1ed5ee63          	bltu	a1,a3,800028d8 <__udivdi3+0x5cc>
800026e0:	000107b7          	lui	a5,0x10
800026e4:	04f6f463          	bgeu	a3,a5,8000272c <__udivdi3+0x420>
800026e8:	0ff00a93          	li	s5,255
800026ec:	00dab7b3          	sltu	a5,s5,a3
800026f0:	00379793          	slli	a5,a5,0x3
800026f4:	00f6d5b3          	srl	a1,a3,a5
800026f8:	00002717          	auipc	a4,0x2
800026fc:	53c70713          	addi	a4,a4,1340 # 80004c34 <__clz_tab>
80002700:	00b70733          	add	a4,a4,a1
80002704:	00074a83          	lbu	s5,0(a4)
80002708:	00fa8ab3          	add	s5,s5,a5
8000270c:	02000793          	li	a5,32
80002710:	415789b3          	sub	s3,a5,s5
80002714:	03579663          	bne	a5,s5,80002740 <__udivdi3+0x434>
80002718:	00100793          	li	a5,1
8000271c:	e886e2e3          	bltu	a3,s0,800025a0 <__udivdi3+0x294>
80002720:	00cbb633          	sltu	a2,s7,a2
80002724:	00164793          	xori	a5,a2,1
80002728:	e79ff06f          	j	800025a0 <__udivdi3+0x294>
8000272c:	01000737          	lui	a4,0x1000
80002730:	01000793          	li	a5,16
80002734:	fce6e0e3          	bltu	a3,a4,800026f4 <__udivdi3+0x3e8>
80002738:	01800793          	li	a5,24
8000273c:	fb9ff06f          	j	800026f4 <__udivdi3+0x3e8>
80002740:	01565cb3          	srl	s9,a2,s5
80002744:	013696b3          	sll	a3,a3,s3
80002748:	00dcecb3          	or	s9,s9,a3
8000274c:	01545933          	srl	s2,s0,s5
80002750:	01341433          	sll	s0,s0,s3
80002754:	015bdab3          	srl	s5,s7,s5
80002758:	008aeab3          	or	s5,s5,s0
8000275c:	010cd413          	srli	s0,s9,0x10
80002760:	00040593          	mv	a1,s0
80002764:	00090513          	mv	a0,s2
80002768:	013614b3          	sll	s1,a2,s3
8000276c:	1ec000ef          	jal	ra,80002958 <__umodsi3>
80002770:	00050a13          	mv	s4,a0
80002774:	00040593          	mv	a1,s0
80002778:	00090513          	mv	a0,s2
8000277c:	010c9b13          	slli	s6,s9,0x10
80002780:	190000ef          	jal	ra,80002910 <__udivsi3>
80002784:	010b5b13          	srli	s6,s6,0x10
80002788:	00050913          	mv	s2,a0
8000278c:	00050593          	mv	a1,a0
80002790:	000b0513          	mv	a0,s6
80002794:	150000ef          	jal	ra,800028e4 <__mulsi3>
80002798:	010a1a13          	slli	s4,s4,0x10
8000279c:	010ad713          	srli	a4,s5,0x10
800027a0:	00ea6733          	or	a4,s4,a4
800027a4:	00090c13          	mv	s8,s2
800027a8:	00a77e63          	bgeu	a4,a0,800027c4 <__udivdi3+0x4b8>
800027ac:	01970733          	add	a4,a4,s9
800027b0:	fff90c13          	addi	s8,s2,-1
800027b4:	01976863          	bltu	a4,s9,800027c4 <__udivdi3+0x4b8>
800027b8:	00a77663          	bgeu	a4,a0,800027c4 <__udivdi3+0x4b8>
800027bc:	ffe90c13          	addi	s8,s2,-2
800027c0:	01970733          	add	a4,a4,s9
800027c4:	40a70933          	sub	s2,a4,a0
800027c8:	00040593          	mv	a1,s0
800027cc:	00090513          	mv	a0,s2
800027d0:	188000ef          	jal	ra,80002958 <__umodsi3>
800027d4:	00040593          	mv	a1,s0
800027d8:	00050a13          	mv	s4,a0
800027dc:	00090513          	mv	a0,s2
800027e0:	130000ef          	jal	ra,80002910 <__udivsi3>
800027e4:	010a9413          	slli	s0,s5,0x10
800027e8:	00050913          	mv	s2,a0
800027ec:	00050593          	mv	a1,a0
800027f0:	010a1a13          	slli	s4,s4,0x10
800027f4:	000b0513          	mv	a0,s6
800027f8:	01045413          	srli	s0,s0,0x10
800027fc:	0e8000ef          	jal	ra,800028e4 <__mulsi3>
80002800:	008a6433          	or	s0,s4,s0
80002804:	00090613          	mv	a2,s2
80002808:	00a47e63          	bgeu	s0,a0,80002824 <__udivdi3+0x518>
8000280c:	01940433          	add	s0,s0,s9
80002810:	fff90613          	addi	a2,s2,-1
80002814:	01946863          	bltu	s0,s9,80002824 <__udivdi3+0x518>
80002818:	00a47663          	bgeu	s0,a0,80002824 <__udivdi3+0x518>
8000281c:	ffe90613          	addi	a2,s2,-2
80002820:	01940433          	add	s0,s0,s9
80002824:	010c1793          	slli	a5,s8,0x10
80002828:	00010e37          	lui	t3,0x10
8000282c:	00c7e7b3          	or	a5,a5,a2
80002830:	fffe0313          	addi	t1,t3,-1 # ffff <__stack_size+0xf7ff>
80002834:	0067f8b3          	and	a7,a5,t1
80002838:	0064f333          	and	t1,s1,t1
8000283c:	40a40433          	sub	s0,s0,a0
80002840:	0107de93          	srli	t4,a5,0x10
80002844:	0104d493          	srli	s1,s1,0x10
80002848:	00088513          	mv	a0,a7
8000284c:	00030593          	mv	a1,t1
80002850:	094000ef          	jal	ra,800028e4 <__mulsi3>
80002854:	00050813          	mv	a6,a0
80002858:	00048593          	mv	a1,s1
8000285c:	00088513          	mv	a0,a7
80002860:	084000ef          	jal	ra,800028e4 <__mulsi3>
80002864:	00050893          	mv	a7,a0
80002868:	00030593          	mv	a1,t1
8000286c:	000e8513          	mv	a0,t4
80002870:	074000ef          	jal	ra,800028e4 <__mulsi3>
80002874:	00050313          	mv	t1,a0
80002878:	00048593          	mv	a1,s1
8000287c:	000e8513          	mv	a0,t4
80002880:	064000ef          	jal	ra,800028e4 <__mulsi3>
80002884:	01085713          	srli	a4,a6,0x10
80002888:	006888b3          	add	a7,a7,t1
8000288c:	01170733          	add	a4,a4,a7
80002890:	00050693          	mv	a3,a0
80002894:	00677463          	bgeu	a4,t1,8000289c <__udivdi3+0x590>
80002898:	01c506b3          	add	a3,a0,t3
8000289c:	01075513          	srli	a0,a4,0x10
800028a0:	00d506b3          	add	a3,a0,a3
800028a4:	02d46663          	bltu	s0,a3,800028d0 <__udivdi3+0x5c4>
800028a8:	bcd412e3          	bne	s0,a3,8000246c <__udivdi3+0x160>
800028ac:	00010537          	lui	a0,0x10
800028b0:	fff50513          	addi	a0,a0,-1 # ffff <__stack_size+0xf7ff>
800028b4:	00a77733          	and	a4,a4,a0
800028b8:	01071713          	slli	a4,a4,0x10
800028bc:	00a87833          	and	a6,a6,a0
800028c0:	013b9bb3          	sll	s7,s7,s3
800028c4:	01070733          	add	a4,a4,a6
800028c8:	00000993          	li	s3,0
800028cc:	ccebfae3          	bgeu	s7,a4,800025a0 <__udivdi3+0x294>
800028d0:	fff78793          	addi	a5,a5,-1 # ffff <__stack_size+0xf7ff>
800028d4:	b99ff06f          	j	8000246c <__udivdi3+0x160>
800028d8:	00000993          	li	s3,0
800028dc:	00000793          	li	a5,0
800028e0:	cc1ff06f          	j	800025a0 <__udivdi3+0x294>

800028e4 <__mulsi3>:
800028e4:	00050613          	mv	a2,a0
800028e8:	00000513          	li	a0,0
800028ec:	0015f693          	andi	a3,a1,1
800028f0:	00068463          	beqz	a3,800028f8 <__mulsi3+0x14>
800028f4:	00c50533          	add	a0,a0,a2
800028f8:	0015d593          	srli	a1,a1,0x1
800028fc:	00161613          	slli	a2,a2,0x1
80002900:	fe0596e3          	bnez	a1,800028ec <__mulsi3+0x8>
80002904:	00008067          	ret

80002908 <__divsi3>:
80002908:	06054063          	bltz	a0,80002968 <__umodsi3+0x10>
8000290c:	0605c663          	bltz	a1,80002978 <__umodsi3+0x20>

80002910 <__udivsi3>:
80002910:	00058613          	mv	a2,a1
80002914:	00050593          	mv	a1,a0
80002918:	fff00513          	li	a0,-1
8000291c:	02060c63          	beqz	a2,80002954 <__udivsi3+0x44>
80002920:	00100693          	li	a3,1
80002924:	00b67a63          	bgeu	a2,a1,80002938 <__udivsi3+0x28>
80002928:	00c05863          	blez	a2,80002938 <__udivsi3+0x28>
8000292c:	00161613          	slli	a2,a2,0x1
80002930:	00169693          	slli	a3,a3,0x1
80002934:	feb66ae3          	bltu	a2,a1,80002928 <__udivsi3+0x18>
80002938:	00000513          	li	a0,0
8000293c:	00c5e663          	bltu	a1,a2,80002948 <__udivsi3+0x38>
80002940:	40c585b3          	sub	a1,a1,a2
80002944:	00d56533          	or	a0,a0,a3
80002948:	0016d693          	srli	a3,a3,0x1
8000294c:	00165613          	srli	a2,a2,0x1
80002950:	fe0696e3          	bnez	a3,8000293c <__udivsi3+0x2c>
80002954:	00008067          	ret

80002958 <__umodsi3>:
80002958:	00008293          	mv	t0,ra
8000295c:	fb5ff0ef          	jal	ra,80002910 <__udivsi3>
80002960:	00058513          	mv	a0,a1
80002964:	00028067          	jr	t0
80002968:	40a00533          	neg	a0,a0
8000296c:	0005d863          	bgez	a1,8000297c <__umodsi3+0x24>
80002970:	40b005b3          	neg	a1,a1
80002974:	f9dff06f          	j	80002910 <__udivsi3>
80002978:	40b005b3          	neg	a1,a1
8000297c:	00008293          	mv	t0,ra
80002980:	f91ff0ef          	jal	ra,80002910 <__udivsi3>
80002984:	40a00533          	neg	a0,a0
80002988:	00028067          	jr	t0

8000298c <__modsi3>:
8000298c:	00008293          	mv	t0,ra
80002990:	0005ca63          	bltz	a1,800029a4 <__modsi3+0x18>
80002994:	00054c63          	bltz	a0,800029ac <__modsi3+0x20>
80002998:	f79ff0ef          	jal	ra,80002910 <__udivsi3>
8000299c:	00058513          	mv	a0,a1
800029a0:	00028067          	jr	t0
800029a4:	40b005b3          	neg	a1,a1
800029a8:	fe0558e3          	bgez	a0,80002998 <__modsi3+0xc>
800029ac:	40a00533          	neg	a0,a0
800029b0:	f61ff0ef          	jal	ra,80002910 <__udivsi3>
800029b4:	40b00533          	neg	a0,a1
800029b8:	00028067          	jr	t0

800029bc <atexit>:
800029bc:	00050593          	mv	a1,a0
800029c0:	00000693          	li	a3,0
800029c4:	00000613          	li	a2,0
800029c8:	00000513          	li	a0,0
800029cc:	69c0006f          	j	80003068 <__register_exitproc>

800029d0 <__libc_fini_array>:
800029d0:	ff010113          	addi	sp,sp,-16
800029d4:	00002797          	auipc	a5,0x2
800029d8:	45478793          	addi	a5,a5,1108 # 80004e28 <__fsymtab_end>
800029dc:	00812423          	sw	s0,8(sp)
800029e0:	00002417          	auipc	s0,0x2
800029e4:	44840413          	addi	s0,s0,1096 # 80004e28 <__fsymtab_end>
800029e8:	40f40433          	sub	s0,s0,a5
800029ec:	00912223          	sw	s1,4(sp)
800029f0:	00112623          	sw	ra,12(sp)
800029f4:	40245413          	srai	s0,s0,0x2
800029f8:	00078493          	mv	s1,a5
800029fc:	00041c63          	bnez	s0,80002a14 <__libc_fini_array+0x44>
80002a00:	00812403          	lw	s0,8(sp)
80002a04:	00c12083          	lw	ra,12(sp)
80002a08:	00412483          	lw	s1,4(sp)
80002a0c:	01010113          	addi	sp,sp,16
80002a10:	ca8fe06f          	j	80000eb8 <_fini>
80002a14:	fff40413          	addi	s0,s0,-1
80002a18:	00241793          	slli	a5,s0,0x2
80002a1c:	00f487b3          	add	a5,s1,a5
80002a20:	0007a783          	lw	a5,0(a5)
80002a24:	000780e7          	jalr	a5
80002a28:	fd5ff06f          	j	800029fc <__libc_fini_array+0x2c>

80002a2c <__libc_init_array>:
80002a2c:	ff010113          	addi	sp,sp,-16
80002a30:	00002797          	auipc	a5,0x2
80002a34:	3f878793          	addi	a5,a5,1016 # 80004e28 <__fsymtab_end>
80002a38:	00812423          	sw	s0,8(sp)
80002a3c:	00002417          	auipc	s0,0x2
80002a40:	3ec40413          	addi	s0,s0,1004 # 80004e28 <__fsymtab_end>
80002a44:	40f40433          	sub	s0,s0,a5
80002a48:	00912223          	sw	s1,4(sp)
80002a4c:	01212023          	sw	s2,0(sp)
80002a50:	00112623          	sw	ra,12(sp)
80002a54:	40245413          	srai	s0,s0,0x2
80002a58:	00000493          	li	s1,0
80002a5c:	00078913          	mv	s2,a5
80002a60:	04849263          	bne	s1,s0,80002aa4 <__libc_init_array+0x78>
80002a64:	c38fe0ef          	jal	ra,80000e9c <_init>
80002a68:	00002797          	auipc	a5,0x2
80002a6c:	3c078793          	addi	a5,a5,960 # 80004e28 <__fsymtab_end>
80002a70:	00002417          	auipc	s0,0x2
80002a74:	3b840413          	addi	s0,s0,952 # 80004e28 <__fsymtab_end>
80002a78:	40f40433          	sub	s0,s0,a5
80002a7c:	40245413          	srai	s0,s0,0x2
80002a80:	00000493          	li	s1,0
80002a84:	00078913          	mv	s2,a5
80002a88:	02849a63          	bne	s1,s0,80002abc <__libc_init_array+0x90>
80002a8c:	00c12083          	lw	ra,12(sp)
80002a90:	00812403          	lw	s0,8(sp)
80002a94:	00412483          	lw	s1,4(sp)
80002a98:	00012903          	lw	s2,0(sp)
80002a9c:	01010113          	addi	sp,sp,16
80002aa0:	00008067          	ret
80002aa4:	00249793          	slli	a5,s1,0x2
80002aa8:	00f907b3          	add	a5,s2,a5
80002aac:	0007a783          	lw	a5,0(a5)
80002ab0:	00148493          	addi	s1,s1,1
80002ab4:	000780e7          	jalr	a5
80002ab8:	fa9ff06f          	j	80002a60 <__libc_init_array+0x34>
80002abc:	00249793          	slli	a5,s1,0x2
80002ac0:	00f907b3          	add	a5,s2,a5
80002ac4:	0007a783          	lw	a5,0(a5)
80002ac8:	00148493          	addi	s1,s1,1
80002acc:	000780e7          	jalr	a5
80002ad0:	fb9ff06f          	j	80002a88 <__libc_init_array+0x5c>

80002ad4 <iprintf>:
80002ad4:	fb010113          	addi	sp,sp,-80
80002ad8:	02812423          	sw	s0,40(sp)
80002adc:	02112623          	sw	ra,44(sp)
80002ae0:	00050413          	mv	s0,a0
80002ae4:	02b12a23          	sw	a1,52(sp)
80002ae8:	02c12c23          	sw	a2,56(sp)
80002aec:	02d12e23          	sw	a3,60(sp)
80002af0:	04e12023          	sw	a4,64(sp)
80002af4:	04f12223          	sw	a5,68(sp)
80002af8:	05012423          	sw	a6,72(sp)
80002afc:	05112623          	sw	a7,76(sp)
80002b00:	8081a503          	lw	a0,-2040(gp) # 90000068 <_impure_ptr>
80002b04:	00050c63          	beqz	a0,80002b1c <iprintf+0x48>
80002b08:	01852783          	lw	a5,24(a0)
80002b0c:	00079863          	bnez	a5,80002b1c <iprintf+0x48>
80002b10:	00a12623          	sw	a0,12(sp)
80002b14:	191000ef          	jal	ra,800034a4 <__sinit>
80002b18:	00c12503          	lw	a0,12(sp)
80002b1c:	00852583          	lw	a1,8(a0)
80002b20:	03410693          	addi	a3,sp,52
80002b24:	00040613          	mv	a2,s0
80002b28:	00d12e23          	sw	a3,28(sp)
80002b2c:	124010ef          	jal	ra,80003c50 <_vfiprintf_r>
80002b30:	02c12083          	lw	ra,44(sp)
80002b34:	02812403          	lw	s0,40(sp)
80002b38:	05010113          	addi	sp,sp,80
80002b3c:	00008067          	ret

80002b40 <putchar>:
80002b40:	00050593          	mv	a1,a0
80002b44:	8081a503          	lw	a0,-2040(gp) # 90000068 <_impure_ptr>
80002b48:	02050c63          	beqz	a0,80002b80 <putchar+0x40>
80002b4c:	01852783          	lw	a5,24(a0)
80002b50:	02079863          	bnez	a5,80002b80 <putchar+0x40>
80002b54:	fe010113          	addi	sp,sp,-32
80002b58:	00112e23          	sw	ra,28(sp)
80002b5c:	00b12623          	sw	a1,12(sp)
80002b60:	00a12423          	sw	a0,8(sp)
80002b64:	141000ef          	jal	ra,800034a4 <__sinit>
80002b68:	00812503          	lw	a0,8(sp)
80002b6c:	00c12583          	lw	a1,12(sp)
80002b70:	01c12083          	lw	ra,28(sp)
80002b74:	00852603          	lw	a2,8(a0)
80002b78:	02010113          	addi	sp,sp,32
80002b7c:	00c0006f          	j	80002b88 <_putc_r>
80002b80:	00852603          	lw	a2,8(a0)
80002b84:	ff9ff06f          	j	80002b7c <putchar+0x3c>

80002b88 <_putc_r>:
80002b88:	fe010113          	addi	sp,sp,-32
80002b8c:	00812c23          	sw	s0,24(sp)
80002b90:	00112e23          	sw	ra,28(sp)
80002b94:	00050413          	mv	s0,a0
80002b98:	02050063          	beqz	a0,80002bb8 <_putc_r+0x30>
80002b9c:	01852783          	lw	a5,24(a0)
80002ba0:	00079c63          	bnez	a5,80002bb8 <_putc_r+0x30>
80002ba4:	00c12623          	sw	a2,12(sp)
80002ba8:	00b12423          	sw	a1,8(sp)
80002bac:	0f9000ef          	jal	ra,800034a4 <__sinit>
80002bb0:	00c12603          	lw	a2,12(sp)
80002bb4:	00812583          	lw	a1,8(sp)
80002bb8:	00002797          	auipc	a5,0x2
80002bbc:	19c78793          	addi	a5,a5,412 # 80004d54 <__sf_fake_stdin>
80002bc0:	04f61863          	bne	a2,a5,80002c10 <_putc_r+0x88>
80002bc4:	00442603          	lw	a2,4(s0)
80002bc8:	00862783          	lw	a5,8(a2)
80002bcc:	fff78793          	addi	a5,a5,-1
80002bd0:	00f62423          	sw	a5,8(a2)
80002bd4:	0007dc63          	bgez	a5,80002bec <_putc_r+0x64>
80002bd8:	01862703          	lw	a4,24(a2)
80002bdc:	04e7ce63          	blt	a5,a4,80002c38 <_putc_r+0xb0>
80002be0:	0ff5f793          	andi	a5,a1,255
80002be4:	00a00713          	li	a4,10
80002be8:	04e78863          	beq	a5,a4,80002c38 <_putc_r+0xb0>
80002bec:	00062783          	lw	a5,0(a2)
80002bf0:	0ff5f513          	andi	a0,a1,255
80002bf4:	00178713          	addi	a4,a5,1
80002bf8:	00e62023          	sw	a4,0(a2)
80002bfc:	00b78023          	sb	a1,0(a5)
80002c00:	01c12083          	lw	ra,28(sp)
80002c04:	01812403          	lw	s0,24(sp)
80002c08:	02010113          	addi	sp,sp,32
80002c0c:	00008067          	ret
80002c10:	00002797          	auipc	a5,0x2
80002c14:	16478793          	addi	a5,a5,356 # 80004d74 <__sf_fake_stdout>
80002c18:	00f61663          	bne	a2,a5,80002c24 <_putc_r+0x9c>
80002c1c:	00842603          	lw	a2,8(s0)
80002c20:	fa9ff06f          	j	80002bc8 <_putc_r+0x40>
80002c24:	00002797          	auipc	a5,0x2
80002c28:	11078793          	addi	a5,a5,272 # 80004d34 <__sf_fake_stderr>
80002c2c:	f8f61ee3          	bne	a2,a5,80002bc8 <_putc_r+0x40>
80002c30:	00c42603          	lw	a2,12(s0)
80002c34:	f95ff06f          	j	80002bc8 <_putc_r+0x40>
80002c38:	00040513          	mv	a0,s0
80002c3c:	01812403          	lw	s0,24(sp)
80002c40:	01c12083          	lw	ra,28(sp)
80002c44:	02010113          	addi	sp,sp,32
80002c48:	1740006f          	j	80002dbc <__swbuf_r>

80002c4c <_puts_r>:
80002c4c:	fe010113          	addi	sp,sp,-32
80002c50:	00912a23          	sw	s1,20(sp)
80002c54:	01212823          	sw	s2,16(sp)
80002c58:	00112e23          	sw	ra,28(sp)
80002c5c:	00812c23          	sw	s0,24(sp)
80002c60:	01312623          	sw	s3,12(sp)
80002c64:	01412423          	sw	s4,8(sp)
80002c68:	00050493          	mv	s1,a0
80002c6c:	00058913          	mv	s2,a1
80002c70:	00050863          	beqz	a0,80002c80 <_puts_r+0x34>
80002c74:	01852783          	lw	a5,24(a0)
80002c78:	00079463          	bnez	a5,80002c80 <_puts_r+0x34>
80002c7c:	029000ef          	jal	ra,800034a4 <__sinit>
80002c80:	0184a783          	lw	a5,24(s1)
80002c84:	0084a403          	lw	s0,8(s1)
80002c88:	00079663          	bnez	a5,80002c94 <_puts_r+0x48>
80002c8c:	00048513          	mv	a0,s1
80002c90:	015000ef          	jal	ra,800034a4 <__sinit>
80002c94:	00002797          	auipc	a5,0x2
80002c98:	0c078793          	addi	a5,a5,192 # 80004d54 <__sf_fake_stdin>
80002c9c:	04f41e63          	bne	s0,a5,80002cf8 <_puts_r+0xac>
80002ca0:	0044a403          	lw	s0,4(s1)
80002ca4:	00c45783          	lhu	a5,12(s0)
80002ca8:	0087f793          	andi	a5,a5,8
80002cac:	06078a63          	beqz	a5,80002d20 <_puts_r+0xd4>
80002cb0:	01042783          	lw	a5,16(s0)
80002cb4:	06078663          	beqz	a5,80002d20 <_puts_r+0xd4>
80002cb8:	fff00993          	li	s3,-1
80002cbc:	00a00a13          	li	s4,10
80002cc0:	00842783          	lw	a5,8(s0)
80002cc4:	00094583          	lbu	a1,0(s2)
80002cc8:	fff78793          	addi	a5,a5,-1
80002ccc:	08059463          	bnez	a1,80002d54 <_puts_r+0x108>
80002cd0:	00f42423          	sw	a5,8(s0)
80002cd4:	0c07d063          	bgez	a5,80002d94 <_puts_r+0x148>
80002cd8:	00040613          	mv	a2,s0
80002cdc:	00a00593          	li	a1,10
80002ce0:	00048513          	mv	a0,s1
80002ce4:	0d8000ef          	jal	ra,80002dbc <__swbuf_r>
80002ce8:	fff00793          	li	a5,-1
80002cec:	04f50263          	beq	a0,a5,80002d30 <_puts_r+0xe4>
80002cf0:	00a00513          	li	a0,10
80002cf4:	0400006f          	j	80002d34 <_puts_r+0xe8>
80002cf8:	00002797          	auipc	a5,0x2
80002cfc:	07c78793          	addi	a5,a5,124 # 80004d74 <__sf_fake_stdout>
80002d00:	00f41663          	bne	s0,a5,80002d0c <_puts_r+0xc0>
80002d04:	0084a403          	lw	s0,8(s1)
80002d08:	f9dff06f          	j	80002ca4 <_puts_r+0x58>
80002d0c:	00002797          	auipc	a5,0x2
80002d10:	02878793          	addi	a5,a5,40 # 80004d34 <__sf_fake_stderr>
80002d14:	f8f418e3          	bne	s0,a5,80002ca4 <_puts_r+0x58>
80002d18:	00c4a403          	lw	s0,12(s1)
80002d1c:	f89ff06f          	j	80002ca4 <_puts_r+0x58>
80002d20:	00040593          	mv	a1,s0
80002d24:	00048513          	mv	a0,s1
80002d28:	1cc000ef          	jal	ra,80002ef4 <__swsetup_r>
80002d2c:	f80506e3          	beqz	a0,80002cb8 <_puts_r+0x6c>
80002d30:	fff00513          	li	a0,-1
80002d34:	01c12083          	lw	ra,28(sp)
80002d38:	01812403          	lw	s0,24(sp)
80002d3c:	01412483          	lw	s1,20(sp)
80002d40:	01012903          	lw	s2,16(sp)
80002d44:	00c12983          	lw	s3,12(sp)
80002d48:	00812a03          	lw	s4,8(sp)
80002d4c:	02010113          	addi	sp,sp,32
80002d50:	00008067          	ret
80002d54:	00f42423          	sw	a5,8(s0)
80002d58:	00190913          	addi	s2,s2,1
80002d5c:	0007d863          	bgez	a5,80002d6c <_puts_r+0x120>
80002d60:	01842703          	lw	a4,24(s0)
80002d64:	00e7ce63          	blt	a5,a4,80002d80 <_puts_r+0x134>
80002d68:	01458c63          	beq	a1,s4,80002d80 <_puts_r+0x134>
80002d6c:	00042783          	lw	a5,0(s0)
80002d70:	00178713          	addi	a4,a5,1
80002d74:	00e42023          	sw	a4,0(s0)
80002d78:	00b78023          	sb	a1,0(a5)
80002d7c:	f45ff06f          	j	80002cc0 <_puts_r+0x74>
80002d80:	00040613          	mv	a2,s0
80002d84:	00048513          	mv	a0,s1
80002d88:	034000ef          	jal	ra,80002dbc <__swbuf_r>
80002d8c:	f3351ae3          	bne	a0,s3,80002cc0 <_puts_r+0x74>
80002d90:	fa1ff06f          	j	80002d30 <_puts_r+0xe4>
80002d94:	00042783          	lw	a5,0(s0)
80002d98:	00178713          	addi	a4,a5,1
80002d9c:	00e42023          	sw	a4,0(s0)
80002da0:	00a00713          	li	a4,10
80002da4:	00e78023          	sb	a4,0(a5)
80002da8:	f49ff06f          	j	80002cf0 <_puts_r+0xa4>

80002dac <puts>:
80002dac:	00050593          	mv	a1,a0
80002db0:	8081a503          	lw	a0,-2040(gp) # 90000068 <_impure_ptr>
80002db4:	e99ff06f          	j	80002c4c <_puts_r>

80002db8 <isatty>:
80002db8:	ba4fd06f          	j	8000015c <_isatty>

80002dbc <__swbuf_r>:
80002dbc:	fe010113          	addi	sp,sp,-32
80002dc0:	00812c23          	sw	s0,24(sp)
80002dc4:	00912a23          	sw	s1,20(sp)
80002dc8:	01212823          	sw	s2,16(sp)
80002dcc:	00112e23          	sw	ra,28(sp)
80002dd0:	01312623          	sw	s3,12(sp)
80002dd4:	00050493          	mv	s1,a0
80002dd8:	00058913          	mv	s2,a1
80002ddc:	00060413          	mv	s0,a2
80002de0:	00050863          	beqz	a0,80002df0 <__swbuf_r+0x34>
80002de4:	01852783          	lw	a5,24(a0)
80002de8:	00079463          	bnez	a5,80002df0 <__swbuf_r+0x34>
80002dec:	6b8000ef          	jal	ra,800034a4 <__sinit>
80002df0:	00002797          	auipc	a5,0x2
80002df4:	f6478793          	addi	a5,a5,-156 # 80004d54 <__sf_fake_stdin>
80002df8:	0af41e63          	bne	s0,a5,80002eb4 <__swbuf_r+0xf8>
80002dfc:	0044a403          	lw	s0,4(s1)
80002e00:	01842783          	lw	a5,24(s0)
80002e04:	00f42423          	sw	a5,8(s0)
80002e08:	00c45783          	lhu	a5,12(s0)
80002e0c:	0087f793          	andi	a5,a5,8
80002e10:	0c078663          	beqz	a5,80002edc <__swbuf_r+0x120>
80002e14:	01042783          	lw	a5,16(s0)
80002e18:	0c078263          	beqz	a5,80002edc <__swbuf_r+0x120>
80002e1c:	01042783          	lw	a5,16(s0)
80002e20:	00042503          	lw	a0,0(s0)
80002e24:	0ff97993          	andi	s3,s2,255
80002e28:	0ff97913          	andi	s2,s2,255
80002e2c:	40f50533          	sub	a0,a0,a5
80002e30:	01442783          	lw	a5,20(s0)
80002e34:	00f54a63          	blt	a0,a5,80002e48 <__swbuf_r+0x8c>
80002e38:	00040593          	mv	a1,s0
80002e3c:	00048513          	mv	a0,s1
80002e40:	4b8000ef          	jal	ra,800032f8 <_fflush_r>
80002e44:	0a051463          	bnez	a0,80002eec <__swbuf_r+0x130>
80002e48:	00842783          	lw	a5,8(s0)
80002e4c:	00150513          	addi	a0,a0,1
80002e50:	fff78793          	addi	a5,a5,-1
80002e54:	00f42423          	sw	a5,8(s0)
80002e58:	00042783          	lw	a5,0(s0)
80002e5c:	00178713          	addi	a4,a5,1
80002e60:	00e42023          	sw	a4,0(s0)
80002e64:	01378023          	sb	s3,0(a5)
80002e68:	01442783          	lw	a5,20(s0)
80002e6c:	00a78c63          	beq	a5,a0,80002e84 <__swbuf_r+0xc8>
80002e70:	00c45783          	lhu	a5,12(s0)
80002e74:	0017f793          	andi	a5,a5,1
80002e78:	00078e63          	beqz	a5,80002e94 <__swbuf_r+0xd8>
80002e7c:	00a00793          	li	a5,10
80002e80:	00f91a63          	bne	s2,a5,80002e94 <__swbuf_r+0xd8>
80002e84:	00040593          	mv	a1,s0
80002e88:	00048513          	mv	a0,s1
80002e8c:	46c000ef          	jal	ra,800032f8 <_fflush_r>
80002e90:	04051e63          	bnez	a0,80002eec <__swbuf_r+0x130>
80002e94:	01c12083          	lw	ra,28(sp)
80002e98:	01812403          	lw	s0,24(sp)
80002e9c:	01412483          	lw	s1,20(sp)
80002ea0:	00c12983          	lw	s3,12(sp)
80002ea4:	00090513          	mv	a0,s2
80002ea8:	01012903          	lw	s2,16(sp)
80002eac:	02010113          	addi	sp,sp,32
80002eb0:	00008067          	ret
80002eb4:	00002797          	auipc	a5,0x2
80002eb8:	ec078793          	addi	a5,a5,-320 # 80004d74 <__sf_fake_stdout>
80002ebc:	00f41663          	bne	s0,a5,80002ec8 <__swbuf_r+0x10c>
80002ec0:	0084a403          	lw	s0,8(s1)
80002ec4:	f3dff06f          	j	80002e00 <__swbuf_r+0x44>
80002ec8:	00002797          	auipc	a5,0x2
80002ecc:	e6c78793          	addi	a5,a5,-404 # 80004d34 <__sf_fake_stderr>
80002ed0:	f2f418e3          	bne	s0,a5,80002e00 <__swbuf_r+0x44>
80002ed4:	00c4a403          	lw	s0,12(s1)
80002ed8:	f29ff06f          	j	80002e00 <__swbuf_r+0x44>
80002edc:	00040593          	mv	a1,s0
80002ee0:	00048513          	mv	a0,s1
80002ee4:	010000ef          	jal	ra,80002ef4 <__swsetup_r>
80002ee8:	f2050ae3          	beqz	a0,80002e1c <__swbuf_r+0x60>
80002eec:	fff00913          	li	s2,-1
80002ef0:	fa5ff06f          	j	80002e94 <__swbuf_r+0xd8>

80002ef4 <__swsetup_r>:
80002ef4:	ff010113          	addi	sp,sp,-16
80002ef8:	00812423          	sw	s0,8(sp)
80002efc:	00912223          	sw	s1,4(sp)
80002f00:	01212023          	sw	s2,0(sp)
80002f04:	00112623          	sw	ra,12(sp)
80002f08:	8081a483          	lw	s1,-2040(gp) # 90000068 <_impure_ptr>
80002f0c:	00050913          	mv	s2,a0
80002f10:	00058413          	mv	s0,a1
80002f14:	00048a63          	beqz	s1,80002f28 <__swsetup_r+0x34>
80002f18:	0184a783          	lw	a5,24(s1)
80002f1c:	00079663          	bnez	a5,80002f28 <__swsetup_r+0x34>
80002f20:	00048513          	mv	a0,s1
80002f24:	580000ef          	jal	ra,800034a4 <__sinit>
80002f28:	00002797          	auipc	a5,0x2
80002f2c:	e2c78793          	addi	a5,a5,-468 # 80004d54 <__sf_fake_stdin>
80002f30:	02f41e63          	bne	s0,a5,80002f6c <__swsetup_r+0x78>
80002f34:	0044a403          	lw	s0,4(s1)
80002f38:	00c41783          	lh	a5,12(s0)
80002f3c:	01079713          	slli	a4,a5,0x10
80002f40:	0087f693          	andi	a3,a5,8
80002f44:	01075713          	srli	a4,a4,0x10
80002f48:	08069a63          	bnez	a3,80002fdc <__swsetup_r+0xe8>
80002f4c:	01077693          	andi	a3,a4,16
80002f50:	04069263          	bnez	a3,80002f94 <__swsetup_r+0xa0>
80002f54:	00900713          	li	a4,9
80002f58:	00e92023          	sw	a4,0(s2)
80002f5c:	0407e793          	ori	a5,a5,64
80002f60:	00f41623          	sh	a5,12(s0)
80002f64:	fff00513          	li	a0,-1
80002f68:	0d00006f          	j	80003038 <__swsetup_r+0x144>
80002f6c:	00002797          	auipc	a5,0x2
80002f70:	e0878793          	addi	a5,a5,-504 # 80004d74 <__sf_fake_stdout>
80002f74:	00f41663          	bne	s0,a5,80002f80 <__swsetup_r+0x8c>
80002f78:	0084a403          	lw	s0,8(s1)
80002f7c:	fbdff06f          	j	80002f38 <__swsetup_r+0x44>
80002f80:	00002797          	auipc	a5,0x2
80002f84:	db478793          	addi	a5,a5,-588 # 80004d34 <__sf_fake_stderr>
80002f88:	faf418e3          	bne	s0,a5,80002f38 <__swsetup_r+0x44>
80002f8c:	00c4a403          	lw	s0,12(s1)
80002f90:	fa9ff06f          	j	80002f38 <__swsetup_r+0x44>
80002f94:	00477713          	andi	a4,a4,4
80002f98:	02070c63          	beqz	a4,80002fd0 <__swsetup_r+0xdc>
80002f9c:	03442583          	lw	a1,52(s0)
80002fa0:	00058c63          	beqz	a1,80002fb8 <__swsetup_r+0xc4>
80002fa4:	04440793          	addi	a5,s0,68
80002fa8:	00f58663          	beq	a1,a5,80002fb4 <__swsetup_r+0xc0>
80002fac:	00090513          	mv	a0,s2
80002fb0:	199000ef          	jal	ra,80003948 <_free_r>
80002fb4:	02042a23          	sw	zero,52(s0)
80002fb8:	00c45783          	lhu	a5,12(s0)
80002fbc:	00042223          	sw	zero,4(s0)
80002fc0:	fdb7f793          	andi	a5,a5,-37
80002fc4:	00f41623          	sh	a5,12(s0)
80002fc8:	01042783          	lw	a5,16(s0)
80002fcc:	00f42023          	sw	a5,0(s0)
80002fd0:	00c45783          	lhu	a5,12(s0)
80002fd4:	0087e793          	ori	a5,a5,8
80002fd8:	00f41623          	sh	a5,12(s0)
80002fdc:	01042783          	lw	a5,16(s0)
80002fe0:	02079063          	bnez	a5,80003000 <__swsetup_r+0x10c>
80002fe4:	00c45783          	lhu	a5,12(s0)
80002fe8:	20000713          	li	a4,512
80002fec:	2807f793          	andi	a5,a5,640
80002ff0:	00e78863          	beq	a5,a4,80003000 <__swsetup_r+0x10c>
80002ff4:	00040593          	mv	a1,s0
80002ff8:	00090513          	mv	a0,s2
80002ffc:	780000ef          	jal	ra,8000377c <__smakebuf_r>
80003000:	00c41783          	lh	a5,12(s0)
80003004:	01079713          	slli	a4,a5,0x10
80003008:	0017f693          	andi	a3,a5,1
8000300c:	01075713          	srli	a4,a4,0x10
80003010:	04068063          	beqz	a3,80003050 <__swsetup_r+0x15c>
80003014:	01442683          	lw	a3,20(s0)
80003018:	00042423          	sw	zero,8(s0)
8000301c:	40d006b3          	neg	a3,a3
80003020:	00d42c23          	sw	a3,24(s0)
80003024:	01042683          	lw	a3,16(s0)
80003028:	00000513          	li	a0,0
8000302c:	00069663          	bnez	a3,80003038 <__swsetup_r+0x144>
80003030:	08077713          	andi	a4,a4,128
80003034:	f20714e3          	bnez	a4,80002f5c <__swsetup_r+0x68>
80003038:	00c12083          	lw	ra,12(sp)
8000303c:	00812403          	lw	s0,8(sp)
80003040:	00412483          	lw	s1,4(sp)
80003044:	00012903          	lw	s2,0(sp)
80003048:	01010113          	addi	sp,sp,16
8000304c:	00008067          	ret
80003050:	00277693          	andi	a3,a4,2
80003054:	00000613          	li	a2,0
80003058:	00069463          	bnez	a3,80003060 <__swsetup_r+0x16c>
8000305c:	01442603          	lw	a2,20(s0)
80003060:	00c42423          	sw	a2,8(s0)
80003064:	fc1ff06f          	j	80003024 <__swsetup_r+0x130>

80003068 <__register_exitproc>:
80003068:	00050893          	mv	a7,a0
8000306c:	81018513          	addi	a0,gp,-2032 # 90000070 <_global_atexit>
80003070:	00052783          	lw	a5,0(a0)
80003074:	02079463          	bnez	a5,8000309c <__register_exitproc+0x34>
80003078:	96418713          	addi	a4,gp,-1692 # 900001c4 <_global_atexit0>
8000307c:	00e52023          	sw	a4,0(a0)
80003080:	7fffd517          	auipc	a0,0x7fffd
80003084:	f8050513          	addi	a0,a0,-128 # 0 <_sp+0x6fff0000>
80003088:	00070793          	mv	a5,a4
8000308c:	00050863          	beqz	a0,8000309c <__register_exitproc+0x34>
80003090:	00052783          	lw	a5,0(a0)
80003094:	08f72423          	sw	a5,136(a4) # 1000088 <__stack_size+0xfff888>
80003098:	00070793          	mv	a5,a4
8000309c:	0047a703          	lw	a4,4(a5)
800030a0:	01f00813          	li	a6,31
800030a4:	fff00513          	li	a0,-1
800030a8:	06e84063          	blt	a6,a4,80003108 <__register_exitproc+0xa0>
800030ac:	04088263          	beqz	a7,800030f0 <__register_exitproc+0x88>
800030b0:	0887a803          	lw	a6,136(a5)
800030b4:	04080a63          	beqz	a6,80003108 <__register_exitproc+0xa0>
800030b8:	00271513          	slli	a0,a4,0x2
800030bc:	00a80533          	add	a0,a6,a0
800030c0:	00c52023          	sw	a2,0(a0)
800030c4:	10082303          	lw	t1,256(a6)
800030c8:	00100613          	li	a2,1
800030cc:	00e61633          	sll	a2,a2,a4
800030d0:	00c36333          	or	t1,t1,a2
800030d4:	10682023          	sw	t1,256(a6)
800030d8:	08d52023          	sw	a3,128(a0)
800030dc:	00200693          	li	a3,2
800030e0:	00d89863          	bne	a7,a3,800030f0 <__register_exitproc+0x88>
800030e4:	10482683          	lw	a3,260(a6)
800030e8:	00c6e633          	or	a2,a3,a2
800030ec:	10c82223          	sw	a2,260(a6)
800030f0:	00170693          	addi	a3,a4,1
800030f4:	00271713          	slli	a4,a4,0x2
800030f8:	00d7a223          	sw	a3,4(a5)
800030fc:	00e787b3          	add	a5,a5,a4
80003100:	00b7a423          	sw	a1,8(a5)
80003104:	00000513          	li	a0,0
80003108:	00008067          	ret

8000310c <__sflush_r>:
8000310c:	00c5d783          	lhu	a5,12(a1)
80003110:	fe010113          	addi	sp,sp,-32
80003114:	00812c23          	sw	s0,24(sp)
80003118:	00912a23          	sw	s1,20(sp)
8000311c:	00112e23          	sw	ra,28(sp)
80003120:	01212823          	sw	s2,16(sp)
80003124:	01312623          	sw	s3,12(sp)
80003128:	0087f713          	andi	a4,a5,8
8000312c:	00050493          	mv	s1,a0
80003130:	00058413          	mv	s0,a1
80003134:	14071e63          	bnez	a4,80003290 <__sflush_r+0x184>
80003138:	0045a703          	lw	a4,4(a1)
8000313c:	00e04a63          	bgtz	a4,80003150 <__sflush_r+0x44>
80003140:	0405a703          	lw	a4,64(a1)
80003144:	00e04663          	bgtz	a4,80003150 <__sflush_r+0x44>
80003148:	00000513          	li	a0,0
8000314c:	11c0006f          	j	80003268 <__sflush_r+0x15c>
80003150:	02c42703          	lw	a4,44(s0)
80003154:	fe070ae3          	beqz	a4,80003148 <__sflush_r+0x3c>
80003158:	0004a903          	lw	s2,0(s1)
8000315c:	01379693          	slli	a3,a5,0x13
80003160:	0004a023          	sw	zero,0(s1)
80003164:	0a06de63          	bgez	a3,80003220 <__sflush_r+0x114>
80003168:	05442503          	lw	a0,84(s0)
8000316c:	00c45783          	lhu	a5,12(s0)
80003170:	0047f793          	andi	a5,a5,4
80003174:	00078e63          	beqz	a5,80003190 <__sflush_r+0x84>
80003178:	00442783          	lw	a5,4(s0)
8000317c:	40f50533          	sub	a0,a0,a5
80003180:	03442783          	lw	a5,52(s0)
80003184:	00078663          	beqz	a5,80003190 <__sflush_r+0x84>
80003188:	04042783          	lw	a5,64(s0)
8000318c:	40f50533          	sub	a0,a0,a5
80003190:	02c42783          	lw	a5,44(s0)
80003194:	02042583          	lw	a1,32(s0)
80003198:	00050613          	mv	a2,a0
8000319c:	00000693          	li	a3,0
800031a0:	00048513          	mv	a0,s1
800031a4:	000780e7          	jalr	a5
800031a8:	fff00793          	li	a5,-1
800031ac:	00c45703          	lhu	a4,12(s0)
800031b0:	02f51263          	bne	a0,a5,800031d4 <__sflush_r+0xc8>
800031b4:	0004a683          	lw	a3,0(s1)
800031b8:	01d00793          	li	a5,29
800031bc:	0cd7e463          	bltu	a5,a3,80003284 <__sflush_r+0x178>
800031c0:	204007b7          	lui	a5,0x20400
800031c4:	00178793          	addi	a5,a5,1 # 20400001 <__stack_size+0x203ff801>
800031c8:	00d7d7b3          	srl	a5,a5,a3
800031cc:	0017f793          	andi	a5,a5,1
800031d0:	0a078a63          	beqz	a5,80003284 <__sflush_r+0x178>
800031d4:	01042783          	lw	a5,16(s0)
800031d8:	00042223          	sw	zero,4(s0)
800031dc:	00f42023          	sw	a5,0(s0)
800031e0:	01371793          	slli	a5,a4,0x13
800031e4:	0007dc63          	bgez	a5,800031fc <__sflush_r+0xf0>
800031e8:	fff00793          	li	a5,-1
800031ec:	00f51663          	bne	a0,a5,800031f8 <__sflush_r+0xec>
800031f0:	0004a783          	lw	a5,0(s1)
800031f4:	00079463          	bnez	a5,800031fc <__sflush_r+0xf0>
800031f8:	04a42a23          	sw	a0,84(s0)
800031fc:	03442583          	lw	a1,52(s0)
80003200:	0124a023          	sw	s2,0(s1)
80003204:	f40582e3          	beqz	a1,80003148 <__sflush_r+0x3c>
80003208:	04440793          	addi	a5,s0,68
8000320c:	00f58663          	beq	a1,a5,80003218 <__sflush_r+0x10c>
80003210:	00048513          	mv	a0,s1
80003214:	734000ef          	jal	ra,80003948 <_free_r>
80003218:	02042a23          	sw	zero,52(s0)
8000321c:	f2dff06f          	j	80003148 <__sflush_r+0x3c>
80003220:	02042583          	lw	a1,32(s0)
80003224:	00100693          	li	a3,1
80003228:	00000613          	li	a2,0
8000322c:	00048513          	mv	a0,s1
80003230:	000700e7          	jalr	a4
80003234:	fff00793          	li	a5,-1
80003238:	f2f51ae3          	bne	a0,a5,8000316c <__sflush_r+0x60>
8000323c:	0004a783          	lw	a5,0(s1)
80003240:	f20786e3          	beqz	a5,8000316c <__sflush_r+0x60>
80003244:	01d00713          	li	a4,29
80003248:	00e78663          	beq	a5,a4,80003254 <__sflush_r+0x148>
8000324c:	01600713          	li	a4,22
80003250:	00e79663          	bne	a5,a4,8000325c <__sflush_r+0x150>
80003254:	0124a023          	sw	s2,0(s1)
80003258:	ef1ff06f          	j	80003148 <__sflush_r+0x3c>
8000325c:	00c45783          	lhu	a5,12(s0)
80003260:	0407e793          	ori	a5,a5,64
80003264:	00f41623          	sh	a5,12(s0)
80003268:	01c12083          	lw	ra,28(sp)
8000326c:	01812403          	lw	s0,24(sp)
80003270:	01412483          	lw	s1,20(sp)
80003274:	01012903          	lw	s2,16(sp)
80003278:	00c12983          	lw	s3,12(sp)
8000327c:	02010113          	addi	sp,sp,32
80003280:	00008067          	ret
80003284:	04076713          	ori	a4,a4,64
80003288:	00e41623          	sh	a4,12(s0)
8000328c:	fddff06f          	j	80003268 <__sflush_r+0x15c>
80003290:	0105a983          	lw	s3,16(a1)
80003294:	ea098ae3          	beqz	s3,80003148 <__sflush_r+0x3c>
80003298:	0005a903          	lw	s2,0(a1)
8000329c:	0037f793          	andi	a5,a5,3
800032a0:	0135a023          	sw	s3,0(a1)
800032a4:	41390933          	sub	s2,s2,s3
800032a8:	00000713          	li	a4,0
800032ac:	00079463          	bnez	a5,800032b4 <__sflush_r+0x1a8>
800032b0:	0145a703          	lw	a4,20(a1)
800032b4:	00e42423          	sw	a4,8(s0)
800032b8:	e92058e3          	blez	s2,80003148 <__sflush_r+0x3c>
800032bc:	02842783          	lw	a5,40(s0)
800032c0:	02042583          	lw	a1,32(s0)
800032c4:	00090693          	mv	a3,s2
800032c8:	00098613          	mv	a2,s3
800032cc:	00048513          	mv	a0,s1
800032d0:	000780e7          	jalr	a5
800032d4:	00a04c63          	bgtz	a0,800032ec <__sflush_r+0x1e0>
800032d8:	00c45783          	lhu	a5,12(s0)
800032dc:	fff00513          	li	a0,-1
800032e0:	0407e793          	ori	a5,a5,64
800032e4:	00f41623          	sh	a5,12(s0)
800032e8:	f81ff06f          	j	80003268 <__sflush_r+0x15c>
800032ec:	00a989b3          	add	s3,s3,a0
800032f0:	40a90933          	sub	s2,s2,a0
800032f4:	fc5ff06f          	j	800032b8 <__sflush_r+0x1ac>

800032f8 <_fflush_r>:
800032f8:	0105a783          	lw	a5,16(a1)
800032fc:	08078a63          	beqz	a5,80003390 <_fflush_r+0x98>
80003300:	fe010113          	addi	sp,sp,-32
80003304:	00812c23          	sw	s0,24(sp)
80003308:	00112e23          	sw	ra,28(sp)
8000330c:	00050413          	mv	s0,a0
80003310:	00050c63          	beqz	a0,80003328 <_fflush_r+0x30>
80003314:	01852783          	lw	a5,24(a0)
80003318:	00079863          	bnez	a5,80003328 <_fflush_r+0x30>
8000331c:	00b12623          	sw	a1,12(sp)
80003320:	184000ef          	jal	ra,800034a4 <__sinit>
80003324:	00c12583          	lw	a1,12(sp)
80003328:	00002797          	auipc	a5,0x2
8000332c:	a2c78793          	addi	a5,a5,-1492 # 80004d54 <__sf_fake_stdin>
80003330:	02f59263          	bne	a1,a5,80003354 <_fflush_r+0x5c>
80003334:	00442583          	lw	a1,4(s0)
80003338:	00c59783          	lh	a5,12(a1)
8000333c:	04078063          	beqz	a5,8000337c <_fflush_r+0x84>
80003340:	00040513          	mv	a0,s0
80003344:	01812403          	lw	s0,24(sp)
80003348:	01c12083          	lw	ra,28(sp)
8000334c:	02010113          	addi	sp,sp,32
80003350:	dbdff06f          	j	8000310c <__sflush_r>
80003354:	00002797          	auipc	a5,0x2
80003358:	a2078793          	addi	a5,a5,-1504 # 80004d74 <__sf_fake_stdout>
8000335c:	00f59663          	bne	a1,a5,80003368 <_fflush_r+0x70>
80003360:	00842583          	lw	a1,8(s0)
80003364:	fd5ff06f          	j	80003338 <_fflush_r+0x40>
80003368:	00002797          	auipc	a5,0x2
8000336c:	9cc78793          	addi	a5,a5,-1588 # 80004d34 <__sf_fake_stderr>
80003370:	fcf594e3          	bne	a1,a5,80003338 <_fflush_r+0x40>
80003374:	00c42583          	lw	a1,12(s0)
80003378:	fc1ff06f          	j	80003338 <_fflush_r+0x40>
8000337c:	01c12083          	lw	ra,28(sp)
80003380:	01812403          	lw	s0,24(sp)
80003384:	00000513          	li	a0,0
80003388:	02010113          	addi	sp,sp,32
8000338c:	00008067          	ret
80003390:	00000513          	li	a0,0
80003394:	00008067          	ret

80003398 <std>:
80003398:	ff010113          	addi	sp,sp,-16
8000339c:	00812423          	sw	s0,8(sp)
800033a0:	00112623          	sw	ra,12(sp)
800033a4:	00050413          	mv	s0,a0
800033a8:	00b51623          	sh	a1,12(a0)
800033ac:	00c51723          	sh	a2,14(a0)
800033b0:	00052023          	sw	zero,0(a0)
800033b4:	00052223          	sw	zero,4(a0)
800033b8:	00052423          	sw	zero,8(a0)
800033bc:	06052223          	sw	zero,100(a0)
800033c0:	00052823          	sw	zero,16(a0)
800033c4:	00052a23          	sw	zero,20(a0)
800033c8:	00052c23          	sw	zero,24(a0)
800033cc:	00800613          	li	a2,8
800033d0:	00000593          	li	a1,0
800033d4:	05c50513          	addi	a0,a0,92
800033d8:	494000ef          	jal	ra,8000386c <memset>
800033dc:	00001797          	auipc	a5,0x1
800033e0:	c8878793          	addi	a5,a5,-888 # 80004064 <__sread>
800033e4:	02f42223          	sw	a5,36(s0)
800033e8:	00001797          	auipc	a5,0x1
800033ec:	ccc78793          	addi	a5,a5,-820 # 800040b4 <__swrite>
800033f0:	02f42423          	sw	a5,40(s0)
800033f4:	00001797          	auipc	a5,0x1
800033f8:	d4478793          	addi	a5,a5,-700 # 80004138 <__sseek>
800033fc:	02f42623          	sw	a5,44(s0)
80003400:	00001797          	auipc	a5,0x1
80003404:	d9078793          	addi	a5,a5,-624 # 80004190 <__sclose>
80003408:	00c12083          	lw	ra,12(sp)
8000340c:	02842023          	sw	s0,32(s0)
80003410:	02f42823          	sw	a5,48(s0)
80003414:	00812403          	lw	s0,8(sp)
80003418:	01010113          	addi	sp,sp,16
8000341c:	00008067          	ret

80003420 <_cleanup_r>:
80003420:	00000597          	auipc	a1,0x0
80003424:	ed858593          	addi	a1,a1,-296 # 800032f8 <_fflush_r>
80003428:	2140006f          	j	8000363c <_fwalk_reent>

8000342c <__sfmoreglue>:
8000342c:	ff010113          	addi	sp,sp,-16
80003430:	fff58613          	addi	a2,a1,-1
80003434:	00812423          	sw	s0,8(sp)
80003438:	00161413          	slli	s0,a2,0x1
8000343c:	00c40433          	add	s0,s0,a2
80003440:	00241413          	slli	s0,s0,0x2
80003444:	00c40433          	add	s0,s0,a2
80003448:	00341413          	slli	s0,s0,0x3
8000344c:	01212023          	sw	s2,0(sp)
80003450:	00058913          	mv	s2,a1
80003454:	07440593          	addi	a1,s0,116
80003458:	00912223          	sw	s1,4(sp)
8000345c:	00112623          	sw	ra,12(sp)
80003460:	5ec000ef          	jal	ra,80003a4c <_malloc_r>
80003464:	00050493          	mv	s1,a0
80003468:	02050063          	beqz	a0,80003488 <__sfmoreglue+0x5c>
8000346c:	00052023          	sw	zero,0(a0)
80003470:	01252223          	sw	s2,4(a0)
80003474:	00c50513          	addi	a0,a0,12
80003478:	00a4a423          	sw	a0,8(s1)
8000347c:	06840613          	addi	a2,s0,104
80003480:	00000593          	li	a1,0
80003484:	3e8000ef          	jal	ra,8000386c <memset>
80003488:	00c12083          	lw	ra,12(sp)
8000348c:	00812403          	lw	s0,8(sp)
80003490:	00012903          	lw	s2,0(sp)
80003494:	00048513          	mv	a0,s1
80003498:	00412483          	lw	s1,4(sp)
8000349c:	01010113          	addi	sp,sp,16
800034a0:	00008067          	ret

800034a4 <__sinit>:
800034a4:	01852783          	lw	a5,24(a0)
800034a8:	0a079463          	bnez	a5,80003550 <__sinit+0xac>
800034ac:	ff010113          	addi	sp,sp,-16
800034b0:	00812423          	sw	s0,8(sp)
800034b4:	00112623          	sw	ra,12(sp)
800034b8:	00000797          	auipc	a5,0x0
800034bc:	f6878793          	addi	a5,a5,-152 # 80003420 <_cleanup_r>
800034c0:	02f52423          	sw	a5,40(a0)
800034c4:	04052423          	sw	zero,72(a0)
800034c8:	04052623          	sw	zero,76(a0)
800034cc:	04052823          	sw	zero,80(a0)
800034d0:	80c1a783          	lw	a5,-2036(gp) # 9000006c <_global_impure_ptr>
800034d4:	00050413          	mv	s0,a0
800034d8:	00f51663          	bne	a0,a5,800034e4 <__sinit+0x40>
800034dc:	00100793          	li	a5,1
800034e0:	00f52c23          	sw	a5,24(a0)
800034e4:	00040513          	mv	a0,s0
800034e8:	06c000ef          	jal	ra,80003554 <__sfp>
800034ec:	00a42223          	sw	a0,4(s0)
800034f0:	00040513          	mv	a0,s0
800034f4:	060000ef          	jal	ra,80003554 <__sfp>
800034f8:	00a42423          	sw	a0,8(s0)
800034fc:	00040513          	mv	a0,s0
80003500:	054000ef          	jal	ra,80003554 <__sfp>
80003504:	00a42623          	sw	a0,12(s0)
80003508:	00442503          	lw	a0,4(s0)
8000350c:	00000613          	li	a2,0
80003510:	00400593          	li	a1,4
80003514:	e85ff0ef          	jal	ra,80003398 <std>
80003518:	00842503          	lw	a0,8(s0)
8000351c:	00100613          	li	a2,1
80003520:	00900593          	li	a1,9
80003524:	e75ff0ef          	jal	ra,80003398 <std>
80003528:	00c42503          	lw	a0,12(s0)
8000352c:	00200613          	li	a2,2
80003530:	01200593          	li	a1,18
80003534:	e65ff0ef          	jal	ra,80003398 <std>
80003538:	00100793          	li	a5,1
8000353c:	00c12083          	lw	ra,12(sp)
80003540:	00f42c23          	sw	a5,24(s0)
80003544:	00812403          	lw	s0,8(sp)
80003548:	01010113          	addi	sp,sp,16
8000354c:	00008067          	ret
80003550:	00008067          	ret

80003554 <__sfp>:
80003554:	ff010113          	addi	sp,sp,-16
80003558:	00912223          	sw	s1,4(sp)
8000355c:	80c1a483          	lw	s1,-2036(gp) # 9000006c <_global_impure_ptr>
80003560:	0184a783          	lw	a5,24(s1)
80003564:	01212023          	sw	s2,0(sp)
80003568:	00112623          	sw	ra,12(sp)
8000356c:	00812423          	sw	s0,8(sp)
80003570:	00050913          	mv	s2,a0
80003574:	00079663          	bnez	a5,80003580 <__sfp+0x2c>
80003578:	00048513          	mv	a0,s1
8000357c:	f29ff0ef          	jal	ra,800034a4 <__sinit>
80003580:	04848493          	addi	s1,s1,72
80003584:	0084a403          	lw	s0,8(s1)
80003588:	0044a783          	lw	a5,4(s1)
8000358c:	fff78793          	addi	a5,a5,-1
80003590:	0007da63          	bgez	a5,800035a4 <__sfp+0x50>
80003594:	0004a783          	lw	a5,0(s1)
80003598:	08078063          	beqz	a5,80003618 <__sfp+0xc4>
8000359c:	0004a483          	lw	s1,0(s1)
800035a0:	fe5ff06f          	j	80003584 <__sfp+0x30>
800035a4:	00c41703          	lh	a4,12(s0)
800035a8:	06071463          	bnez	a4,80003610 <__sfp+0xbc>
800035ac:	ffff07b7          	lui	a5,0xffff0
800035b0:	00178793          	addi	a5,a5,1 # ffff0001 <_sp+0x6ffe0001>
800035b4:	06042223          	sw	zero,100(s0)
800035b8:	00042023          	sw	zero,0(s0)
800035bc:	00042223          	sw	zero,4(s0)
800035c0:	00042423          	sw	zero,8(s0)
800035c4:	00f42623          	sw	a5,12(s0)
800035c8:	00042823          	sw	zero,16(s0)
800035cc:	00042a23          	sw	zero,20(s0)
800035d0:	00042c23          	sw	zero,24(s0)
800035d4:	00800613          	li	a2,8
800035d8:	00000593          	li	a1,0
800035dc:	05c40513          	addi	a0,s0,92
800035e0:	28c000ef          	jal	ra,8000386c <memset>
800035e4:	02042a23          	sw	zero,52(s0)
800035e8:	02042c23          	sw	zero,56(s0)
800035ec:	04042423          	sw	zero,72(s0)
800035f0:	04042623          	sw	zero,76(s0)
800035f4:	00c12083          	lw	ra,12(sp)
800035f8:	00040513          	mv	a0,s0
800035fc:	00812403          	lw	s0,8(sp)
80003600:	00412483          	lw	s1,4(sp)
80003604:	00012903          	lw	s2,0(sp)
80003608:	01010113          	addi	sp,sp,16
8000360c:	00008067          	ret
80003610:	06840413          	addi	s0,s0,104
80003614:	f79ff06f          	j	8000358c <__sfp+0x38>
80003618:	00400593          	li	a1,4
8000361c:	00090513          	mv	a0,s2
80003620:	e0dff0ef          	jal	ra,8000342c <__sfmoreglue>
80003624:	00a4a023          	sw	a0,0(s1)
80003628:	00050413          	mv	s0,a0
8000362c:	f60518e3          	bnez	a0,8000359c <__sfp+0x48>
80003630:	00c00793          	li	a5,12
80003634:	00f92023          	sw	a5,0(s2)
80003638:	fbdff06f          	j	800035f4 <__sfp+0xa0>

8000363c <_fwalk_reent>:
8000363c:	fd010113          	addi	sp,sp,-48
80003640:	02812423          	sw	s0,40(sp)
80003644:	03212023          	sw	s2,32(sp)
80003648:	01312e23          	sw	s3,28(sp)
8000364c:	01412c23          	sw	s4,24(sp)
80003650:	01612823          	sw	s6,16(sp)
80003654:	01712623          	sw	s7,12(sp)
80003658:	02112623          	sw	ra,44(sp)
8000365c:	02912223          	sw	s1,36(sp)
80003660:	01512a23          	sw	s5,20(sp)
80003664:	00050913          	mv	s2,a0
80003668:	00058a13          	mv	s4,a1
8000366c:	04850413          	addi	s0,a0,72
80003670:	00000993          	li	s3,0
80003674:	00100b13          	li	s6,1
80003678:	fff00b93          	li	s7,-1
8000367c:	00842483          	lw	s1,8(s0)
80003680:	00442a83          	lw	s5,4(s0)
80003684:	fffa8a93          	addi	s5,s5,-1
80003688:	020ade63          	bgez	s5,800036c4 <_fwalk_reent+0x88>
8000368c:	00042403          	lw	s0,0(s0)
80003690:	fe0416e3          	bnez	s0,8000367c <_fwalk_reent+0x40>
80003694:	02c12083          	lw	ra,44(sp)
80003698:	02812403          	lw	s0,40(sp)
8000369c:	02412483          	lw	s1,36(sp)
800036a0:	02012903          	lw	s2,32(sp)
800036a4:	01812a03          	lw	s4,24(sp)
800036a8:	01412a83          	lw	s5,20(sp)
800036ac:	01012b03          	lw	s6,16(sp)
800036b0:	00c12b83          	lw	s7,12(sp)
800036b4:	00098513          	mv	a0,s3
800036b8:	01c12983          	lw	s3,28(sp)
800036bc:	03010113          	addi	sp,sp,48
800036c0:	00008067          	ret
800036c4:	00c4d783          	lhu	a5,12(s1)
800036c8:	00fb7e63          	bgeu	s6,a5,800036e4 <_fwalk_reent+0xa8>
800036cc:	00e49783          	lh	a5,14(s1)
800036d0:	01778a63          	beq	a5,s7,800036e4 <_fwalk_reent+0xa8>
800036d4:	00048593          	mv	a1,s1
800036d8:	00090513          	mv	a0,s2
800036dc:	000a00e7          	jalr	s4
800036e0:	00a9e9b3          	or	s3,s3,a0
800036e4:	06848493          	addi	s1,s1,104
800036e8:	f9dff06f          	j	80003684 <_fwalk_reent+0x48>

800036ec <__swhatbuf_r>:
800036ec:	f9010113          	addi	sp,sp,-112
800036f0:	07212023          	sw	s2,96(sp)
800036f4:	00058913          	mv	s2,a1
800036f8:	00e59583          	lh	a1,14(a1)
800036fc:	06812423          	sw	s0,104(sp)
80003700:	06912223          	sw	s1,100(sp)
80003704:	06112623          	sw	ra,108(sp)
80003708:	00060413          	mv	s0,a2
8000370c:	00068493          	mv	s1,a3
80003710:	0005de63          	bgez	a1,8000372c <__swhatbuf_r+0x40>
80003714:	00c95783          	lhu	a5,12(s2)
80003718:	0004a023          	sw	zero,0(s1)
8000371c:	0807f793          	andi	a5,a5,128
80003720:	02079c63          	bnez	a5,80003758 <__swhatbuf_r+0x6c>
80003724:	40000793          	li	a5,1024
80003728:	0340006f          	j	8000375c <__swhatbuf_r+0x70>
8000372c:	00810613          	addi	a2,sp,8
80003730:	2f1000ef          	jal	ra,80004220 <_fstat_r>
80003734:	fe0540e3          	bltz	a0,80003714 <__swhatbuf_r+0x28>
80003738:	00c12703          	lw	a4,12(sp)
8000373c:	0000f7b7          	lui	a5,0xf
80003740:	00e7f7b3          	and	a5,a5,a4
80003744:	ffffe737          	lui	a4,0xffffe
80003748:	00e787b3          	add	a5,a5,a4
8000374c:	0017b793          	seqz	a5,a5
80003750:	00f4a023          	sw	a5,0(s1)
80003754:	fd1ff06f          	j	80003724 <__swhatbuf_r+0x38>
80003758:	04000793          	li	a5,64
8000375c:	06c12083          	lw	ra,108(sp)
80003760:	00f42023          	sw	a5,0(s0)
80003764:	06812403          	lw	s0,104(sp)
80003768:	06412483          	lw	s1,100(sp)
8000376c:	06012903          	lw	s2,96(sp)
80003770:	00000513          	li	a0,0
80003774:	07010113          	addi	sp,sp,112
80003778:	00008067          	ret

8000377c <__smakebuf_r>:
8000377c:	00c5d783          	lhu	a5,12(a1)
80003780:	fe010113          	addi	sp,sp,-32
80003784:	00812c23          	sw	s0,24(sp)
80003788:	00112e23          	sw	ra,28(sp)
8000378c:	00912a23          	sw	s1,20(sp)
80003790:	01212823          	sw	s2,16(sp)
80003794:	0027f793          	andi	a5,a5,2
80003798:	00058413          	mv	s0,a1
8000379c:	02078863          	beqz	a5,800037cc <__smakebuf_r+0x50>
800037a0:	04740793          	addi	a5,s0,71
800037a4:	00f42023          	sw	a5,0(s0)
800037a8:	00f42823          	sw	a5,16(s0)
800037ac:	00100793          	li	a5,1
800037b0:	00f42a23          	sw	a5,20(s0)
800037b4:	01c12083          	lw	ra,28(sp)
800037b8:	01812403          	lw	s0,24(sp)
800037bc:	01412483          	lw	s1,20(sp)
800037c0:	01012903          	lw	s2,16(sp)
800037c4:	02010113          	addi	sp,sp,32
800037c8:	00008067          	ret
800037cc:	00c10693          	addi	a3,sp,12
800037d0:	00810613          	addi	a2,sp,8
800037d4:	00050913          	mv	s2,a0
800037d8:	f15ff0ef          	jal	ra,800036ec <__swhatbuf_r>
800037dc:	00812583          	lw	a1,8(sp)
800037e0:	00050493          	mv	s1,a0
800037e4:	00090513          	mv	a0,s2
800037e8:	264000ef          	jal	ra,80003a4c <_malloc_r>
800037ec:	02051063          	bnez	a0,8000380c <__smakebuf_r+0x90>
800037f0:	00c41783          	lh	a5,12(s0)
800037f4:	2007f713          	andi	a4,a5,512
800037f8:	fa071ee3          	bnez	a4,800037b4 <__smakebuf_r+0x38>
800037fc:	ffc7f793          	andi	a5,a5,-4
80003800:	0027e793          	ori	a5,a5,2
80003804:	00f41623          	sh	a5,12(s0)
80003808:	f99ff06f          	j	800037a0 <__smakebuf_r+0x24>
8000380c:	00000797          	auipc	a5,0x0
80003810:	c1478793          	addi	a5,a5,-1004 # 80003420 <_cleanup_r>
80003814:	02f92423          	sw	a5,40(s2)
80003818:	00c45783          	lhu	a5,12(s0)
8000381c:	00a42023          	sw	a0,0(s0)
80003820:	00a42823          	sw	a0,16(s0)
80003824:	0807e793          	ori	a5,a5,128
80003828:	00f41623          	sh	a5,12(s0)
8000382c:	00812783          	lw	a5,8(sp)
80003830:	00f42a23          	sw	a5,20(s0)
80003834:	00c12783          	lw	a5,12(sp)
80003838:	02078263          	beqz	a5,8000385c <__smakebuf_r+0xe0>
8000383c:	00e41583          	lh	a1,14(s0)
80003840:	00090513          	mv	a0,s2
80003844:	221000ef          	jal	ra,80004264 <_isatty_r>
80003848:	00050a63          	beqz	a0,8000385c <__smakebuf_r+0xe0>
8000384c:	00c45783          	lhu	a5,12(s0)
80003850:	ffc7f793          	andi	a5,a5,-4
80003854:	0017e793          	ori	a5,a5,1
80003858:	00f41623          	sh	a5,12(s0)
8000385c:	00c45503          	lhu	a0,12(s0)
80003860:	00a4e4b3          	or	s1,s1,a0
80003864:	00941623          	sh	s1,12(s0)
80003868:	f4dff06f          	j	800037b4 <__smakebuf_r+0x38>

8000386c <memset>:
8000386c:	00f00313          	li	t1,15
80003870:	00050713          	mv	a4,a0
80003874:	02c37e63          	bgeu	t1,a2,800038b0 <memset+0x44>
80003878:	00f77793          	andi	a5,a4,15
8000387c:	0a079063          	bnez	a5,8000391c <memset+0xb0>
80003880:	08059263          	bnez	a1,80003904 <memset+0x98>
80003884:	ff067693          	andi	a3,a2,-16
80003888:	00f67613          	andi	a2,a2,15
8000388c:	00e686b3          	add	a3,a3,a4
80003890:	00b72023          	sw	a1,0(a4) # ffffe000 <_sp+0x6ffee000>
80003894:	00b72223          	sw	a1,4(a4)
80003898:	00b72423          	sw	a1,8(a4)
8000389c:	00b72623          	sw	a1,12(a4)
800038a0:	01070713          	addi	a4,a4,16
800038a4:	fed766e3          	bltu	a4,a3,80003890 <memset+0x24>
800038a8:	00061463          	bnez	a2,800038b0 <memset+0x44>
800038ac:	00008067          	ret
800038b0:	40c306b3          	sub	a3,t1,a2
800038b4:	00269693          	slli	a3,a3,0x2
800038b8:	00000297          	auipc	t0,0x0
800038bc:	005686b3          	add	a3,a3,t0
800038c0:	00c68067          	jr	12(a3)
800038c4:	00b70723          	sb	a1,14(a4)
800038c8:	00b706a3          	sb	a1,13(a4)
800038cc:	00b70623          	sb	a1,12(a4)
800038d0:	00b705a3          	sb	a1,11(a4)
800038d4:	00b70523          	sb	a1,10(a4)
800038d8:	00b704a3          	sb	a1,9(a4)
800038dc:	00b70423          	sb	a1,8(a4)
800038e0:	00b703a3          	sb	a1,7(a4)
800038e4:	00b70323          	sb	a1,6(a4)
800038e8:	00b702a3          	sb	a1,5(a4)
800038ec:	00b70223          	sb	a1,4(a4)
800038f0:	00b701a3          	sb	a1,3(a4)
800038f4:	00b70123          	sb	a1,2(a4)
800038f8:	00b700a3          	sb	a1,1(a4)
800038fc:	00b70023          	sb	a1,0(a4)
80003900:	00008067          	ret
80003904:	0ff5f593          	andi	a1,a1,255
80003908:	00859693          	slli	a3,a1,0x8
8000390c:	00d5e5b3          	or	a1,a1,a3
80003910:	01059693          	slli	a3,a1,0x10
80003914:	00d5e5b3          	or	a1,a1,a3
80003918:	f6dff06f          	j	80003884 <memset+0x18>
8000391c:	00279693          	slli	a3,a5,0x2
80003920:	00000297          	auipc	t0,0x0
80003924:	005686b3          	add	a3,a3,t0
80003928:	00008293          	mv	t0,ra
8000392c:	fa0680e7          	jalr	-96(a3)
80003930:	00028093          	mv	ra,t0
80003934:	ff078793          	addi	a5,a5,-16
80003938:	40f70733          	sub	a4,a4,a5
8000393c:	00f60633          	add	a2,a2,a5
80003940:	f6c378e3          	bgeu	t1,a2,800038b0 <memset+0x44>
80003944:	f3dff06f          	j	80003880 <memset+0x14>

80003948 <_free_r>:
80003948:	10058063          	beqz	a1,80003a48 <_free_r+0x100>
8000394c:	ffc5a783          	lw	a5,-4(a1)
80003950:	fe010113          	addi	sp,sp,-32
80003954:	00812c23          	sw	s0,24(sp)
80003958:	00112e23          	sw	ra,28(sp)
8000395c:	ffc58413          	addi	s0,a1,-4
80003960:	0007d463          	bgez	a5,80003968 <_free_r+0x20>
80003964:	00f40433          	add	s0,s0,a5
80003968:	00a12623          	sw	a0,12(sp)
8000396c:	1a5000ef          	jal	ra,80004310 <__malloc_lock>
80003970:	81418713          	addi	a4,gp,-2028 # 90000074 <__malloc_free_list>
80003974:	00072783          	lw	a5,0(a4)
80003978:	00c12503          	lw	a0,12(sp)
8000397c:	00070613          	mv	a2,a4
80003980:	00079e63          	bnez	a5,8000399c <_free_r+0x54>
80003984:	00042223          	sw	zero,4(s0)
80003988:	00872023          	sw	s0,0(a4)
8000398c:	01812403          	lw	s0,24(sp)
80003990:	01c12083          	lw	ra,28(sp)
80003994:	02010113          	addi	sp,sp,32
80003998:	17d0006f          	j	80004314 <__malloc_unlock>
8000399c:	02f47663          	bgeu	s0,a5,800039c8 <_free_r+0x80>
800039a0:	00042683          	lw	a3,0(s0)
800039a4:	00d40733          	add	a4,s0,a3
800039a8:	00e79a63          	bne	a5,a4,800039bc <_free_r+0x74>
800039ac:	0007a703          	lw	a4,0(a5)
800039b0:	0047a783          	lw	a5,4(a5)
800039b4:	00d70733          	add	a4,a4,a3
800039b8:	00e42023          	sw	a4,0(s0)
800039bc:	00f42223          	sw	a5,4(s0)
800039c0:	00862023          	sw	s0,0(a2)
800039c4:	fc9ff06f          	j	8000398c <_free_r+0x44>
800039c8:	00078713          	mv	a4,a5
800039cc:	0047a783          	lw	a5,4(a5)
800039d0:	00078463          	beqz	a5,800039d8 <_free_r+0x90>
800039d4:	fef47ae3          	bgeu	s0,a5,800039c8 <_free_r+0x80>
800039d8:	00072683          	lw	a3,0(a4)
800039dc:	00d70633          	add	a2,a4,a3
800039e0:	02861863          	bne	a2,s0,80003a10 <_free_r+0xc8>
800039e4:	00042603          	lw	a2,0(s0)
800039e8:	00c686b3          	add	a3,a3,a2
800039ec:	00d72023          	sw	a3,0(a4)
800039f0:	00d70633          	add	a2,a4,a3
800039f4:	f8c79ce3          	bne	a5,a2,8000398c <_free_r+0x44>
800039f8:	0007a603          	lw	a2,0(a5)
800039fc:	0047a783          	lw	a5,4(a5)
80003a00:	00d606b3          	add	a3,a2,a3
80003a04:	00d72023          	sw	a3,0(a4)
80003a08:	00f72223          	sw	a5,4(a4)
80003a0c:	f81ff06f          	j	8000398c <_free_r+0x44>
80003a10:	00c47863          	bgeu	s0,a2,80003a20 <_free_r+0xd8>
80003a14:	00c00793          	li	a5,12
80003a18:	00f52023          	sw	a5,0(a0)
80003a1c:	f71ff06f          	j	8000398c <_free_r+0x44>
80003a20:	00042603          	lw	a2,0(s0)
80003a24:	00c406b3          	add	a3,s0,a2
80003a28:	00d79a63          	bne	a5,a3,80003a3c <_free_r+0xf4>
80003a2c:	0007a683          	lw	a3,0(a5)
80003a30:	0047a783          	lw	a5,4(a5)
80003a34:	00c686b3          	add	a3,a3,a2
80003a38:	00d42023          	sw	a3,0(s0)
80003a3c:	00f42223          	sw	a5,4(s0)
80003a40:	00872223          	sw	s0,4(a4)
80003a44:	f49ff06f          	j	8000398c <_free_r+0x44>
80003a48:	00008067          	ret

80003a4c <_malloc_r>:
80003a4c:	fe010113          	addi	sp,sp,-32
80003a50:	00912a23          	sw	s1,20(sp)
80003a54:	00358493          	addi	s1,a1,3
80003a58:	ffc4f493          	andi	s1,s1,-4
80003a5c:	01212823          	sw	s2,16(sp)
80003a60:	00112e23          	sw	ra,28(sp)
80003a64:	00812c23          	sw	s0,24(sp)
80003a68:	01312623          	sw	s3,12(sp)
80003a6c:	00848493          	addi	s1,s1,8
80003a70:	00c00793          	li	a5,12
80003a74:	00050913          	mv	s2,a0
80003a78:	06f4f663          	bgeu	s1,a5,80003ae4 <_malloc_r+0x98>
80003a7c:	00c00493          	li	s1,12
80003a80:	06b4e463          	bltu	s1,a1,80003ae8 <_malloc_r+0x9c>
80003a84:	00090513          	mv	a0,s2
80003a88:	089000ef          	jal	ra,80004310 <__malloc_lock>
80003a8c:	81418793          	addi	a5,gp,-2028 # 90000074 <__malloc_free_list>
80003a90:	0007a703          	lw	a4,0(a5)
80003a94:	00078693          	mv	a3,a5
80003a98:	00070413          	mv	s0,a4
80003a9c:	06041a63          	bnez	s0,80003b10 <_malloc_r+0xc4>
80003aa0:	81818413          	addi	s0,gp,-2024 # 90000078 <__malloc_sbrk_start>
80003aa4:	00042783          	lw	a5,0(s0)
80003aa8:	00079a63          	bnez	a5,80003abc <_malloc_r+0x70>
80003aac:	00000593          	li	a1,0
80003ab0:	00090513          	mv	a0,s2
80003ab4:	570000ef          	jal	ra,80004024 <_sbrk_r>
80003ab8:	00a42023          	sw	a0,0(s0)
80003abc:	00048593          	mv	a1,s1
80003ac0:	00090513          	mv	a0,s2
80003ac4:	560000ef          	jal	ra,80004024 <_sbrk_r>
80003ac8:	fff00993          	li	s3,-1
80003acc:	0b351a63          	bne	a0,s3,80003b80 <_malloc_r+0x134>
80003ad0:	00c00793          	li	a5,12
80003ad4:	00f92023          	sw	a5,0(s2)
80003ad8:	00090513          	mv	a0,s2
80003adc:	039000ef          	jal	ra,80004314 <__malloc_unlock>
80003ae0:	0100006f          	j	80003af0 <_malloc_r+0xa4>
80003ae4:	f804dee3          	bgez	s1,80003a80 <_malloc_r+0x34>
80003ae8:	00c00793          	li	a5,12
80003aec:	00f92023          	sw	a5,0(s2)
80003af0:	00000513          	li	a0,0
80003af4:	01c12083          	lw	ra,28(sp)
80003af8:	01812403          	lw	s0,24(sp)
80003afc:	01412483          	lw	s1,20(sp)
80003b00:	01012903          	lw	s2,16(sp)
80003b04:	00c12983          	lw	s3,12(sp)
80003b08:	02010113          	addi	sp,sp,32
80003b0c:	00008067          	ret
80003b10:	00042783          	lw	a5,0(s0)
80003b14:	409787b3          	sub	a5,a5,s1
80003b18:	0407ce63          	bltz	a5,80003b74 <_malloc_r+0x128>
80003b1c:	00b00613          	li	a2,11
80003b20:	00f67a63          	bgeu	a2,a5,80003b34 <_malloc_r+0xe8>
80003b24:	00f42023          	sw	a5,0(s0)
80003b28:	00f40433          	add	s0,s0,a5
80003b2c:	00942023          	sw	s1,0(s0)
80003b30:	0100006f          	j	80003b40 <_malloc_r+0xf4>
80003b34:	00442783          	lw	a5,4(s0)
80003b38:	02871a63          	bne	a4,s0,80003b6c <_malloc_r+0x120>
80003b3c:	00f6a023          	sw	a5,0(a3)
80003b40:	00090513          	mv	a0,s2
80003b44:	7d0000ef          	jal	ra,80004314 <__malloc_unlock>
80003b48:	00b40513          	addi	a0,s0,11
80003b4c:	00440793          	addi	a5,s0,4
80003b50:	ff857513          	andi	a0,a0,-8
80003b54:	40f50733          	sub	a4,a0,a5
80003b58:	f8f50ee3          	beq	a0,a5,80003af4 <_malloc_r+0xa8>
80003b5c:	00e40433          	add	s0,s0,a4
80003b60:	40a787b3          	sub	a5,a5,a0
80003b64:	00f42023          	sw	a5,0(s0)
80003b68:	f8dff06f          	j	80003af4 <_malloc_r+0xa8>
80003b6c:	00f72223          	sw	a5,4(a4)
80003b70:	fd1ff06f          	j	80003b40 <_malloc_r+0xf4>
80003b74:	00040713          	mv	a4,s0
80003b78:	00442403          	lw	s0,4(s0)
80003b7c:	f21ff06f          	j	80003a9c <_malloc_r+0x50>
80003b80:	00350413          	addi	s0,a0,3
80003b84:	ffc47413          	andi	s0,s0,-4
80003b88:	fa8502e3          	beq	a0,s0,80003b2c <_malloc_r+0xe0>
80003b8c:	40a405b3          	sub	a1,s0,a0
80003b90:	00090513          	mv	a0,s2
80003b94:	490000ef          	jal	ra,80004024 <_sbrk_r>
80003b98:	f9351ae3          	bne	a0,s3,80003b2c <_malloc_r+0xe0>
80003b9c:	f35ff06f          	j	80003ad0 <_malloc_r+0x84>

80003ba0 <__sfputc_r>:
80003ba0:	00862783          	lw	a5,8(a2)
80003ba4:	fff78793          	addi	a5,a5,-1
80003ba8:	00f62423          	sw	a5,8(a2)
80003bac:	0007dc63          	bgez	a5,80003bc4 <__sfputc_r+0x24>
80003bb0:	01862703          	lw	a4,24(a2)
80003bb4:	00e7c663          	blt	a5,a4,80003bc0 <__sfputc_r+0x20>
80003bb8:	00a00793          	li	a5,10
80003bbc:	00f59463          	bne	a1,a5,80003bc4 <__sfputc_r+0x24>
80003bc0:	9fcff06f          	j	80002dbc <__swbuf_r>
80003bc4:	00062783          	lw	a5,0(a2)
80003bc8:	00058513          	mv	a0,a1
80003bcc:	00178713          	addi	a4,a5,1
80003bd0:	00e62023          	sw	a4,0(a2)
80003bd4:	00b78023          	sb	a1,0(a5)
80003bd8:	00008067          	ret

80003bdc <__sfputs_r>:
80003bdc:	fe010113          	addi	sp,sp,-32
80003be0:	00812c23          	sw	s0,24(sp)
80003be4:	00912a23          	sw	s1,20(sp)
80003be8:	01212823          	sw	s2,16(sp)
80003bec:	01312623          	sw	s3,12(sp)
80003bf0:	01412423          	sw	s4,8(sp)
80003bf4:	00112e23          	sw	ra,28(sp)
80003bf8:	00050913          	mv	s2,a0
80003bfc:	00058993          	mv	s3,a1
80003c00:	00060413          	mv	s0,a2
80003c04:	00d604b3          	add	s1,a2,a3
80003c08:	fff00a13          	li	s4,-1
80003c0c:	00941663          	bne	s0,s1,80003c18 <__sfputs_r+0x3c>
80003c10:	00000513          	li	a0,0
80003c14:	01c0006f          	j	80003c30 <__sfputs_r+0x54>
80003c18:	00044583          	lbu	a1,0(s0)
80003c1c:	00098613          	mv	a2,s3
80003c20:	00090513          	mv	a0,s2
80003c24:	f7dff0ef          	jal	ra,80003ba0 <__sfputc_r>
80003c28:	00140413          	addi	s0,s0,1
80003c2c:	ff4510e3          	bne	a0,s4,80003c0c <__sfputs_r+0x30>
80003c30:	01c12083          	lw	ra,28(sp)
80003c34:	01812403          	lw	s0,24(sp)
80003c38:	01412483          	lw	s1,20(sp)
80003c3c:	01012903          	lw	s2,16(sp)
80003c40:	00c12983          	lw	s3,12(sp)
80003c44:	00812a03          	lw	s4,8(sp)
80003c48:	02010113          	addi	sp,sp,32
80003c4c:	00008067          	ret

80003c50 <_vfiprintf_r>:
80003c50:	f6010113          	addi	sp,sp,-160
80003c54:	08812c23          	sw	s0,152(sp)
80003c58:	08912a23          	sw	s1,148(sp)
80003c5c:	09212823          	sw	s2,144(sp)
80003c60:	09312623          	sw	s3,140(sp)
80003c64:	08112e23          	sw	ra,156(sp)
80003c68:	09412423          	sw	s4,136(sp)
80003c6c:	09512223          	sw	s5,132(sp)
80003c70:	09612023          	sw	s6,128(sp)
80003c74:	07712e23          	sw	s7,124(sp)
80003c78:	07812c23          	sw	s8,120(sp)
80003c7c:	07912a23          	sw	s9,116(sp)
80003c80:	00050993          	mv	s3,a0
80003c84:	00058493          	mv	s1,a1
80003c88:	00060913          	mv	s2,a2
80003c8c:	00068413          	mv	s0,a3
80003c90:	00050863          	beqz	a0,80003ca0 <_vfiprintf_r+0x50>
80003c94:	01852783          	lw	a5,24(a0)
80003c98:	00079463          	bnez	a5,80003ca0 <_vfiprintf_r+0x50>
80003c9c:	809ff0ef          	jal	ra,800034a4 <__sinit>
80003ca0:	00001797          	auipc	a5,0x1
80003ca4:	0b478793          	addi	a5,a5,180 # 80004d54 <__sf_fake_stdin>
80003ca8:	12f49263          	bne	s1,a5,80003dcc <_vfiprintf_r+0x17c>
80003cac:	0049a483          	lw	s1,4(s3)
80003cb0:	00c4d783          	lhu	a5,12(s1)
80003cb4:	0087f793          	andi	a5,a5,8
80003cb8:	12078e63          	beqz	a5,80003df4 <_vfiprintf_r+0x1a4>
80003cbc:	0104a783          	lw	a5,16(s1)
80003cc0:	12078a63          	beqz	a5,80003df4 <_vfiprintf_r+0x1a4>
80003cc4:	02000793          	li	a5,32
80003cc8:	02f104a3          	sb	a5,41(sp)
80003ccc:	03000793          	li	a5,48
80003cd0:	02012223          	sw	zero,36(sp)
80003cd4:	02f10523          	sb	a5,42(sp)
80003cd8:	00812623          	sw	s0,12(sp)
80003cdc:	02500b13          	li	s6,37
80003ce0:	00001a97          	auipc	s5,0x1
80003ce4:	0b4a8a93          	addi	s5,s5,180 # 80004d94 <__sf_fake_stdout+0x20>
80003ce8:	00100b93          	li	s7,1
80003cec:	7fffcc17          	auipc	s8,0x7fffc
80003cf0:	314c0c13          	addi	s8,s8,788 # 0 <_sp+0x6fff0000>
80003cf4:	00090413          	mv	s0,s2
80003cf8:	00044783          	lbu	a5,0(s0)
80003cfc:	00078463          	beqz	a5,80003d04 <_vfiprintf_r+0xb4>
80003d00:	13679e63          	bne	a5,s6,80003e3c <_vfiprintf_r+0x1ec>
80003d04:	41240cb3          	sub	s9,s0,s2
80003d08:	03240663          	beq	s0,s2,80003d34 <_vfiprintf_r+0xe4>
80003d0c:	000c8693          	mv	a3,s9
80003d10:	00090613          	mv	a2,s2
80003d14:	00048593          	mv	a1,s1
80003d18:	00098513          	mv	a0,s3
80003d1c:	ec1ff0ef          	jal	ra,80003bdc <__sfputs_r>
80003d20:	fff00793          	li	a5,-1
80003d24:	2cf50663          	beq	a0,a5,80003ff0 <_vfiprintf_r+0x3a0>
80003d28:	02412783          	lw	a5,36(sp)
80003d2c:	019787b3          	add	a5,a5,s9
80003d30:	02f12223          	sw	a5,36(sp)
80003d34:	00044783          	lbu	a5,0(s0)
80003d38:	2a078c63          	beqz	a5,80003ff0 <_vfiprintf_r+0x3a0>
80003d3c:	fff00793          	li	a5,-1
80003d40:	00140913          	addi	s2,s0,1
80003d44:	00012823          	sw	zero,16(sp)
80003d48:	00012e23          	sw	zero,28(sp)
80003d4c:	00f12a23          	sw	a5,20(sp)
80003d50:	00012c23          	sw	zero,24(sp)
80003d54:	040109a3          	sb	zero,83(sp)
80003d58:	06012423          	sw	zero,104(sp)
80003d5c:	00094583          	lbu	a1,0(s2)
80003d60:	00500613          	li	a2,5
80003d64:	000a8513          	mv	a0,s5
80003d68:	584000ef          	jal	ra,800042ec <memchr>
80003d6c:	01012783          	lw	a5,16(sp)
80003d70:	00190413          	addi	s0,s2,1
80003d74:	0c051863          	bnez	a0,80003e44 <_vfiprintf_r+0x1f4>
80003d78:	0107f713          	andi	a4,a5,16
80003d7c:	00070663          	beqz	a4,80003d88 <_vfiprintf_r+0x138>
80003d80:	02000713          	li	a4,32
80003d84:	04e109a3          	sb	a4,83(sp)
80003d88:	0087f713          	andi	a4,a5,8
80003d8c:	00070663          	beqz	a4,80003d98 <_vfiprintf_r+0x148>
80003d90:	02b00713          	li	a4,43
80003d94:	04e109a3          	sb	a4,83(sp)
80003d98:	00094683          	lbu	a3,0(s2)
80003d9c:	02a00713          	li	a4,42
80003da0:	0ae68e63          	beq	a3,a4,80003e5c <_vfiprintf_r+0x20c>
80003da4:	01c12703          	lw	a4,28(sp)
80003da8:	00090413          	mv	s0,s2
80003dac:	00000793          	li	a5,0
80003db0:	00900613          	li	a2,9
80003db4:	00044683          	lbu	a3,0(s0)
80003db8:	00140593          	addi	a1,s0,1
80003dbc:	fd068693          	addi	a3,a3,-48
80003dc0:	18d67263          	bgeu	a2,a3,80003f44 <_vfiprintf_r+0x2f4>
80003dc4:	0a079663          	bnez	a5,80003e70 <_vfiprintf_r+0x220>
80003dc8:	0c00006f          	j	80003e88 <_vfiprintf_r+0x238>
80003dcc:	00001797          	auipc	a5,0x1
80003dd0:	fa878793          	addi	a5,a5,-88 # 80004d74 <__sf_fake_stdout>
80003dd4:	00f49663          	bne	s1,a5,80003de0 <_vfiprintf_r+0x190>
80003dd8:	0089a483          	lw	s1,8(s3)
80003ddc:	ed5ff06f          	j	80003cb0 <_vfiprintf_r+0x60>
80003de0:	00001797          	auipc	a5,0x1
80003de4:	f5478793          	addi	a5,a5,-172 # 80004d34 <__sf_fake_stderr>
80003de8:	ecf494e3          	bne	s1,a5,80003cb0 <_vfiprintf_r+0x60>
80003dec:	00c9a483          	lw	s1,12(s3)
80003df0:	ec1ff06f          	j	80003cb0 <_vfiprintf_r+0x60>
80003df4:	00048593          	mv	a1,s1
80003df8:	00098513          	mv	a0,s3
80003dfc:	8f8ff0ef          	jal	ra,80002ef4 <__swsetup_r>
80003e00:	ec0502e3          	beqz	a0,80003cc4 <_vfiprintf_r+0x74>
80003e04:	fff00513          	li	a0,-1
80003e08:	09c12083          	lw	ra,156(sp)
80003e0c:	09812403          	lw	s0,152(sp)
80003e10:	09412483          	lw	s1,148(sp)
80003e14:	09012903          	lw	s2,144(sp)
80003e18:	08c12983          	lw	s3,140(sp)
80003e1c:	08812a03          	lw	s4,136(sp)
80003e20:	08412a83          	lw	s5,132(sp)
80003e24:	08012b03          	lw	s6,128(sp)
80003e28:	07c12b83          	lw	s7,124(sp)
80003e2c:	07812c03          	lw	s8,120(sp)
80003e30:	07412c83          	lw	s9,116(sp)
80003e34:	0a010113          	addi	sp,sp,160
80003e38:	00008067          	ret
80003e3c:	00140413          	addi	s0,s0,1
80003e40:	eb9ff06f          	j	80003cf8 <_vfiprintf_r+0xa8>
80003e44:	41550533          	sub	a0,a0,s5
80003e48:	00ab9533          	sll	a0,s7,a0
80003e4c:	00a7e7b3          	or	a5,a5,a0
80003e50:	00f12823          	sw	a5,16(sp)
80003e54:	00040913          	mv	s2,s0
80003e58:	f05ff06f          	j	80003d5c <_vfiprintf_r+0x10c>
80003e5c:	00c12703          	lw	a4,12(sp)
80003e60:	00470693          	addi	a3,a4,4
80003e64:	00072703          	lw	a4,0(a4)
80003e68:	00d12623          	sw	a3,12(sp)
80003e6c:	00074663          	bltz	a4,80003e78 <_vfiprintf_r+0x228>
80003e70:	00e12e23          	sw	a4,28(sp)
80003e74:	0140006f          	j	80003e88 <_vfiprintf_r+0x238>
80003e78:	40e00733          	neg	a4,a4
80003e7c:	0027e793          	ori	a5,a5,2
80003e80:	00e12e23          	sw	a4,28(sp)
80003e84:	00f12823          	sw	a5,16(sp)
80003e88:	00044703          	lbu	a4,0(s0)
80003e8c:	02e00793          	li	a5,46
80003e90:	02f71663          	bne	a4,a5,80003ebc <_vfiprintf_r+0x26c>
80003e94:	00144703          	lbu	a4,1(s0)
80003e98:	02a00793          	li	a5,42
80003e9c:	0cf71663          	bne	a4,a5,80003f68 <_vfiprintf_r+0x318>
80003ea0:	00c12783          	lw	a5,12(sp)
80003ea4:	00240413          	addi	s0,s0,2
80003ea8:	00478713          	addi	a4,a5,4
80003eac:	0007a783          	lw	a5,0(a5)
80003eb0:	00e12623          	sw	a4,12(sp)
80003eb4:	0a07c663          	bltz	a5,80003f60 <_vfiprintf_r+0x310>
80003eb8:	00f12a23          	sw	a5,20(sp)
80003ebc:	00044583          	lbu	a1,0(s0)
80003ec0:	00300613          	li	a2,3
80003ec4:	00001517          	auipc	a0,0x1
80003ec8:	ed850513          	addi	a0,a0,-296 # 80004d9c <__sf_fake_stdout+0x28>
80003ecc:	420000ef          	jal	ra,800042ec <memchr>
80003ed0:	02050463          	beqz	a0,80003ef8 <_vfiprintf_r+0x2a8>
80003ed4:	00001797          	auipc	a5,0x1
80003ed8:	ec878793          	addi	a5,a5,-312 # 80004d9c <__sf_fake_stdout+0x28>
80003edc:	40f50533          	sub	a0,a0,a5
80003ee0:	04000793          	li	a5,64
80003ee4:	00a797b3          	sll	a5,a5,a0
80003ee8:	01012503          	lw	a0,16(sp)
80003eec:	00140413          	addi	s0,s0,1
80003ef0:	00f56533          	or	a0,a0,a5
80003ef4:	00a12823          	sw	a0,16(sp)
80003ef8:	00044583          	lbu	a1,0(s0)
80003efc:	00600613          	li	a2,6
80003f00:	00001517          	auipc	a0,0x1
80003f04:	ea050513          	addi	a0,a0,-352 # 80004da0 <__sf_fake_stdout+0x2c>
80003f08:	00140913          	addi	s2,s0,1
80003f0c:	02b10423          	sb	a1,40(sp)
80003f10:	3dc000ef          	jal	ra,800042ec <memchr>
80003f14:	0e050863          	beqz	a0,80004004 <_vfiprintf_r+0x3b4>
80003f18:	0a0c1663          	bnez	s8,80003fc4 <_vfiprintf_r+0x374>
80003f1c:	01012703          	lw	a4,16(sp)
80003f20:	00c12783          	lw	a5,12(sp)
80003f24:	10077713          	andi	a4,a4,256
80003f28:	08070663          	beqz	a4,80003fb4 <_vfiprintf_r+0x364>
80003f2c:	00478793          	addi	a5,a5,4
80003f30:	00f12623          	sw	a5,12(sp)
80003f34:	02412783          	lw	a5,36(sp)
80003f38:	014787b3          	add	a5,a5,s4
80003f3c:	02f12223          	sw	a5,36(sp)
80003f40:	db5ff06f          	j	80003cf4 <_vfiprintf_r+0xa4>
80003f44:	00271793          	slli	a5,a4,0x2
80003f48:	00e787b3          	add	a5,a5,a4
80003f4c:	00179793          	slli	a5,a5,0x1
80003f50:	00d78733          	add	a4,a5,a3
80003f54:	00058413          	mv	s0,a1
80003f58:	00100793          	li	a5,1
80003f5c:	e59ff06f          	j	80003db4 <_vfiprintf_r+0x164>
80003f60:	fff00793          	li	a5,-1
80003f64:	f55ff06f          	j	80003eb8 <_vfiprintf_r+0x268>
80003f68:	00140413          	addi	s0,s0,1
80003f6c:	00012a23          	sw	zero,20(sp)
80003f70:	00000793          	li	a5,0
80003f74:	00000713          	li	a4,0
80003f78:	00900613          	li	a2,9
80003f7c:	00044683          	lbu	a3,0(s0)
80003f80:	00140593          	addi	a1,s0,1
80003f84:	fd068693          	addi	a3,a3,-48
80003f88:	00d67863          	bgeu	a2,a3,80003f98 <_vfiprintf_r+0x348>
80003f8c:	f20788e3          	beqz	a5,80003ebc <_vfiprintf_r+0x26c>
80003f90:	00e12a23          	sw	a4,20(sp)
80003f94:	f29ff06f          	j	80003ebc <_vfiprintf_r+0x26c>
80003f98:	00271793          	slli	a5,a4,0x2
80003f9c:	00e787b3          	add	a5,a5,a4
80003fa0:	00179793          	slli	a5,a5,0x1
80003fa4:	00d78733          	add	a4,a5,a3
80003fa8:	00058413          	mv	s0,a1
80003fac:	00100793          	li	a5,1
80003fb0:	fcdff06f          	j	80003f7c <_vfiprintf_r+0x32c>
80003fb4:	00778793          	addi	a5,a5,7
80003fb8:	ff87f793          	andi	a5,a5,-8
80003fbc:	00878793          	addi	a5,a5,8
80003fc0:	f71ff06f          	j	80003f30 <_vfiprintf_r+0x2e0>
80003fc4:	00c10713          	addi	a4,sp,12
80003fc8:	00000697          	auipc	a3,0x0
80003fcc:	c1468693          	addi	a3,a3,-1004 # 80003bdc <__sfputs_r>
80003fd0:	00048613          	mv	a2,s1
80003fd4:	01010593          	addi	a1,sp,16
80003fd8:	00098513          	mv	a0,s3
80003fdc:	00000097          	auipc	ra,0x0
80003fe0:	000000e7          	jalr	zero # 0 <__stack_size-0x800>
80003fe4:	fff00793          	li	a5,-1
80003fe8:	00050a13          	mv	s4,a0
80003fec:	f4f514e3          	bne	a0,a5,80003f34 <_vfiprintf_r+0x2e4>
80003ff0:	00c4d783          	lhu	a5,12(s1)
80003ff4:	0407f793          	andi	a5,a5,64
80003ff8:	e00796e3          	bnez	a5,80003e04 <_vfiprintf_r+0x1b4>
80003ffc:	02412503          	lw	a0,36(sp)
80004000:	e09ff06f          	j	80003e08 <_vfiprintf_r+0x1b8>
80004004:	00c10713          	addi	a4,sp,12
80004008:	00000697          	auipc	a3,0x0
8000400c:	bd468693          	addi	a3,a3,-1068 # 80003bdc <__sfputs_r>
80004010:	00048613          	mv	a2,s1
80004014:	01010593          	addi	a1,sp,16
80004018:	00098513          	mv	a0,s3
8000401c:	4ac000ef          	jal	ra,800044c8 <_printf_i>
80004020:	fc5ff06f          	j	80003fe4 <_vfiprintf_r+0x394>

80004024 <_sbrk_r>:
80004024:	ff010113          	addi	sp,sp,-16
80004028:	00812423          	sw	s0,8(sp)
8000402c:	00050413          	mv	s0,a0
80004030:	00058513          	mv	a0,a1
80004034:	9e01a823          	sw	zero,-1552(gp) # 90000250 <errno>
80004038:	00112623          	sw	ra,12(sp)
8000403c:	9d4fc0ef          	jal	ra,80000210 <_sbrk>
80004040:	fff00793          	li	a5,-1
80004044:	00f51863          	bne	a0,a5,80004054 <_sbrk_r+0x30>
80004048:	9f01a783          	lw	a5,-1552(gp) # 90000250 <errno>
8000404c:	00078463          	beqz	a5,80004054 <_sbrk_r+0x30>
80004050:	00f42023          	sw	a5,0(s0)
80004054:	00c12083          	lw	ra,12(sp)
80004058:	00812403          	lw	s0,8(sp)
8000405c:	01010113          	addi	sp,sp,16
80004060:	00008067          	ret

80004064 <__sread>:
80004064:	ff010113          	addi	sp,sp,-16
80004068:	00812423          	sw	s0,8(sp)
8000406c:	00058413          	mv	s0,a1
80004070:	00e59583          	lh	a1,14(a1)
80004074:	00112623          	sw	ra,12(sp)
80004078:	019000ef          	jal	ra,80004890 <_read_r>
8000407c:	02054063          	bltz	a0,8000409c <__sread+0x38>
80004080:	05442783          	lw	a5,84(s0)
80004084:	00a787b3          	add	a5,a5,a0
80004088:	04f42a23          	sw	a5,84(s0)
8000408c:	00c12083          	lw	ra,12(sp)
80004090:	00812403          	lw	s0,8(sp)
80004094:	01010113          	addi	sp,sp,16
80004098:	00008067          	ret
8000409c:	00c45783          	lhu	a5,12(s0)
800040a0:	fffff737          	lui	a4,0xfffff
800040a4:	fff70713          	addi	a4,a4,-1 # ffffefff <_sp+0x6ffeefff>
800040a8:	00e7f7b3          	and	a5,a5,a4
800040ac:	00f41623          	sh	a5,12(s0)
800040b0:	fddff06f          	j	8000408c <__sread+0x28>

800040b4 <__swrite>:
800040b4:	00c5d783          	lhu	a5,12(a1)
800040b8:	fe010113          	addi	sp,sp,-32
800040bc:	00812c23          	sw	s0,24(sp)
800040c0:	00912a23          	sw	s1,20(sp)
800040c4:	01212823          	sw	s2,16(sp)
800040c8:	01312623          	sw	s3,12(sp)
800040cc:	00112e23          	sw	ra,28(sp)
800040d0:	1007f793          	andi	a5,a5,256
800040d4:	00050493          	mv	s1,a0
800040d8:	00058413          	mv	s0,a1
800040dc:	00060913          	mv	s2,a2
800040e0:	00068993          	mv	s3,a3
800040e4:	00078a63          	beqz	a5,800040f8 <__swrite+0x44>
800040e8:	00e59583          	lh	a1,14(a1)
800040ec:	00200693          	li	a3,2
800040f0:	00000613          	li	a2,0
800040f4:	1b0000ef          	jal	ra,800042a4 <_lseek_r>
800040f8:	00c45783          	lhu	a5,12(s0)
800040fc:	fffff737          	lui	a4,0xfffff
80004100:	fff70713          	addi	a4,a4,-1 # ffffefff <_sp+0x6ffeefff>
80004104:	00e7f7b3          	and	a5,a5,a4
80004108:	00e41583          	lh	a1,14(s0)
8000410c:	00f41623          	sh	a5,12(s0)
80004110:	01812403          	lw	s0,24(sp)
80004114:	01c12083          	lw	ra,28(sp)
80004118:	00098693          	mv	a3,s3
8000411c:	00090613          	mv	a2,s2
80004120:	00c12983          	lw	s3,12(sp)
80004124:	01012903          	lw	s2,16(sp)
80004128:	00048513          	mv	a0,s1
8000412c:	01412483          	lw	s1,20(sp)
80004130:	02010113          	addi	sp,sp,32
80004134:	0640006f          	j	80004198 <_write_r>

80004138 <__sseek>:
80004138:	ff010113          	addi	sp,sp,-16
8000413c:	00812423          	sw	s0,8(sp)
80004140:	00058413          	mv	s0,a1
80004144:	00e59583          	lh	a1,14(a1)
80004148:	00112623          	sw	ra,12(sp)
8000414c:	158000ef          	jal	ra,800042a4 <_lseek_r>
80004150:	fff00793          	li	a5,-1
80004154:	00c45703          	lhu	a4,12(s0)
80004158:	02f51263          	bne	a0,a5,8000417c <__sseek+0x44>
8000415c:	fffff7b7          	lui	a5,0xfffff
80004160:	fff78793          	addi	a5,a5,-1 # ffffefff <_sp+0x6ffeefff>
80004164:	00e7f7b3          	and	a5,a5,a4
80004168:	00f41623          	sh	a5,12(s0)
8000416c:	00c12083          	lw	ra,12(sp)
80004170:	00812403          	lw	s0,8(sp)
80004174:	01010113          	addi	sp,sp,16
80004178:	00008067          	ret
8000417c:	000017b7          	lui	a5,0x1
80004180:	00f767b3          	or	a5,a4,a5
80004184:	00f41623          	sh	a5,12(s0)
80004188:	04a42a23          	sw	a0,84(s0)
8000418c:	fe1ff06f          	j	8000416c <__sseek+0x34>

80004190 <__sclose>:
80004190:	00e59583          	lh	a1,14(a1)
80004194:	04c0006f          	j	800041e0 <_close_r>

80004198 <_write_r>:
80004198:	ff010113          	addi	sp,sp,-16
8000419c:	00812423          	sw	s0,8(sp)
800041a0:	00050413          	mv	s0,a0
800041a4:	00058513          	mv	a0,a1
800041a8:	00060593          	mv	a1,a2
800041ac:	00068613          	mv	a2,a3
800041b0:	9e01a823          	sw	zero,-1552(gp) # 90000250 <errno>
800041b4:	00112623          	sw	ra,12(sp)
800041b8:	8f4fc0ef          	jal	ra,800002ac <_write>
800041bc:	fff00793          	li	a5,-1
800041c0:	00f51863          	bne	a0,a5,800041d0 <_write_r+0x38>
800041c4:	9f01a783          	lw	a5,-1552(gp) # 90000250 <errno>
800041c8:	00078463          	beqz	a5,800041d0 <_write_r+0x38>
800041cc:	00f42023          	sw	a5,0(s0)
800041d0:	00c12083          	lw	ra,12(sp)
800041d4:	00812403          	lw	s0,8(sp)
800041d8:	01010113          	addi	sp,sp,16
800041dc:	00008067          	ret

800041e0 <_close_r>:
800041e0:	ff010113          	addi	sp,sp,-16
800041e4:	00812423          	sw	s0,8(sp)
800041e8:	00050413          	mv	s0,a0
800041ec:	00058513          	mv	a0,a1
800041f0:	9e01a823          	sw	zero,-1552(gp) # 90000250 <errno>
800041f4:	00112623          	sw	ra,12(sp)
800041f8:	ed5fb0ef          	jal	ra,800000cc <_close>
800041fc:	fff00793          	li	a5,-1
80004200:	00f51863          	bne	a0,a5,80004210 <_close_r+0x30>
80004204:	9f01a783          	lw	a5,-1552(gp) # 90000250 <errno>
80004208:	00078463          	beqz	a5,80004210 <_close_r+0x30>
8000420c:	00f42023          	sw	a5,0(s0)
80004210:	00c12083          	lw	ra,12(sp)
80004214:	00812403          	lw	s0,8(sp)
80004218:	01010113          	addi	sp,sp,16
8000421c:	00008067          	ret

80004220 <_fstat_r>:
80004220:	ff010113          	addi	sp,sp,-16
80004224:	00812423          	sw	s0,8(sp)
80004228:	00050413          	mv	s0,a0
8000422c:	00058513          	mv	a0,a1
80004230:	00060593          	mv	a1,a2
80004234:	9e01a823          	sw	zero,-1552(gp) # 90000250 <errno>
80004238:	00112623          	sw	ra,12(sp)
8000423c:	ec1fb0ef          	jal	ra,800000fc <_fstat>
80004240:	fff00793          	li	a5,-1
80004244:	00f51863          	bne	a0,a5,80004254 <_fstat_r+0x34>
80004248:	9f01a783          	lw	a5,-1552(gp) # 90000250 <errno>
8000424c:	00078463          	beqz	a5,80004254 <_fstat_r+0x34>
80004250:	00f42023          	sw	a5,0(s0)
80004254:	00c12083          	lw	ra,12(sp)
80004258:	00812403          	lw	s0,8(sp)
8000425c:	01010113          	addi	sp,sp,16
80004260:	00008067          	ret

80004264 <_isatty_r>:
80004264:	ff010113          	addi	sp,sp,-16
80004268:	00812423          	sw	s0,8(sp)
8000426c:	00050413          	mv	s0,a0
80004270:	00058513          	mv	a0,a1
80004274:	9e01a823          	sw	zero,-1552(gp) # 90000250 <errno>
80004278:	00112623          	sw	ra,12(sp)
8000427c:	ee1fb0ef          	jal	ra,8000015c <_isatty>
80004280:	fff00793          	li	a5,-1
80004284:	00f51863          	bne	a0,a5,80004294 <_isatty_r+0x30>
80004288:	9f01a783          	lw	a5,-1552(gp) # 90000250 <errno>
8000428c:	00078463          	beqz	a5,80004294 <_isatty_r+0x30>
80004290:	00f42023          	sw	a5,0(s0)
80004294:	00c12083          	lw	ra,12(sp)
80004298:	00812403          	lw	s0,8(sp)
8000429c:	01010113          	addi	sp,sp,16
800042a0:	00008067          	ret

800042a4 <_lseek_r>:
800042a4:	ff010113          	addi	sp,sp,-16
800042a8:	00812423          	sw	s0,8(sp)
800042ac:	00050413          	mv	s0,a0
800042b0:	00058513          	mv	a0,a1
800042b4:	00060593          	mv	a1,a2
800042b8:	00068613          	mv	a2,a3
800042bc:	9e01a823          	sw	zero,-1552(gp) # 90000250 <errno>
800042c0:	00112623          	sw	ra,12(sp)
800042c4:	ebdfb0ef          	jal	ra,80000180 <_lseek>
800042c8:	fff00793          	li	a5,-1
800042cc:	00f51863          	bne	a0,a5,800042dc <_lseek_r+0x38>
800042d0:	9f01a783          	lw	a5,-1552(gp) # 90000250 <errno>
800042d4:	00078463          	beqz	a5,800042dc <_lseek_r+0x38>
800042d8:	00f42023          	sw	a5,0(s0)
800042dc:	00c12083          	lw	ra,12(sp)
800042e0:	00812403          	lw	s0,8(sp)
800042e4:	01010113          	addi	sp,sp,16
800042e8:	00008067          	ret

800042ec <memchr>:
800042ec:	0ff5f593          	andi	a1,a1,255
800042f0:	00c50633          	add	a2,a0,a2
800042f4:	00c51663          	bne	a0,a2,80004300 <memchr+0x14>
800042f8:	00000513          	li	a0,0
800042fc:	00008067          	ret
80004300:	00054783          	lbu	a5,0(a0)
80004304:	feb78ce3          	beq	a5,a1,800042fc <memchr+0x10>
80004308:	00150513          	addi	a0,a0,1
8000430c:	fe9ff06f          	j	800042f4 <memchr+0x8>

80004310 <__malloc_lock>:
80004310:	00008067          	ret

80004314 <__malloc_unlock>:
80004314:	00008067          	ret

80004318 <_printf_common>:
80004318:	fd010113          	addi	sp,sp,-48
8000431c:	01412c23          	sw	s4,24(sp)
80004320:	0105a783          	lw	a5,16(a1)
80004324:	00070a13          	mv	s4,a4
80004328:	0085a703          	lw	a4,8(a1)
8000432c:	02812423          	sw	s0,40(sp)
80004330:	02912223          	sw	s1,36(sp)
80004334:	01312e23          	sw	s3,28(sp)
80004338:	01512a23          	sw	s5,20(sp)
8000433c:	02112623          	sw	ra,44(sp)
80004340:	03212023          	sw	s2,32(sp)
80004344:	01612823          	sw	s6,16(sp)
80004348:	01712623          	sw	s7,12(sp)
8000434c:	00050993          	mv	s3,a0
80004350:	00058413          	mv	s0,a1
80004354:	00060493          	mv	s1,a2
80004358:	00068a93          	mv	s5,a3
8000435c:	00e7d463          	bge	a5,a4,80004364 <_printf_common+0x4c>
80004360:	00070793          	mv	a5,a4
80004364:	00f4a023          	sw	a5,0(s1)
80004368:	04344703          	lbu	a4,67(s0)
8000436c:	00070663          	beqz	a4,80004378 <_printf_common+0x60>
80004370:	00178793          	addi	a5,a5,1 # 1001 <__stack_size+0x801>
80004374:	00f4a023          	sw	a5,0(s1)
80004378:	00042783          	lw	a5,0(s0)
8000437c:	0207f793          	andi	a5,a5,32
80004380:	00078863          	beqz	a5,80004390 <_printf_common+0x78>
80004384:	0004a783          	lw	a5,0(s1)
80004388:	00278793          	addi	a5,a5,2
8000438c:	00f4a023          	sw	a5,0(s1)
80004390:	00042903          	lw	s2,0(s0)
80004394:	00697913          	andi	s2,s2,6
80004398:	00091e63          	bnez	s2,800043b4 <_printf_common+0x9c>
8000439c:	01940b13          	addi	s6,s0,25
800043a0:	fff00b93          	li	s7,-1
800043a4:	00c42783          	lw	a5,12(s0)
800043a8:	0004a703          	lw	a4,0(s1)
800043ac:	40e787b3          	sub	a5,a5,a4
800043b0:	08f94263          	blt	s2,a5,80004434 <_printf_common+0x11c>
800043b4:	04344783          	lbu	a5,67(s0)
800043b8:	00f036b3          	snez	a3,a5
800043bc:	00042783          	lw	a5,0(s0)
800043c0:	0207f793          	andi	a5,a5,32
800043c4:	0c079063          	bnez	a5,80004484 <_printf_common+0x16c>
800043c8:	04340613          	addi	a2,s0,67
800043cc:	000a8593          	mv	a1,s5
800043d0:	00098513          	mv	a0,s3
800043d4:	000a00e7          	jalr	s4
800043d8:	fff00793          	li	a5,-1
800043dc:	06f50863          	beq	a0,a5,8000444c <_printf_common+0x134>
800043e0:	00042783          	lw	a5,0(s0)
800043e4:	00400613          	li	a2,4
800043e8:	0004a703          	lw	a4,0(s1)
800043ec:	0067f793          	andi	a5,a5,6
800043f0:	00c42683          	lw	a3,12(s0)
800043f4:	00000493          	li	s1,0
800043f8:	00c79863          	bne	a5,a2,80004408 <_printf_common+0xf0>
800043fc:	40e684b3          	sub	s1,a3,a4
80004400:	0004d463          	bgez	s1,80004408 <_printf_common+0xf0>
80004404:	00000493          	li	s1,0
80004408:	00842783          	lw	a5,8(s0)
8000440c:	01042703          	lw	a4,16(s0)
80004410:	00f75663          	bge	a4,a5,8000441c <_printf_common+0x104>
80004414:	40e787b3          	sub	a5,a5,a4
80004418:	00f484b3          	add	s1,s1,a5
8000441c:	00000913          	li	s2,0
80004420:	01a40413          	addi	s0,s0,26
80004424:	fff00b13          	li	s6,-1
80004428:	09249063          	bne	s1,s2,800044a8 <_printf_common+0x190>
8000442c:	00000513          	li	a0,0
80004430:	0200006f          	j	80004450 <_printf_common+0x138>
80004434:	00100693          	li	a3,1
80004438:	000b0613          	mv	a2,s6
8000443c:	000a8593          	mv	a1,s5
80004440:	00098513          	mv	a0,s3
80004444:	000a00e7          	jalr	s4
80004448:	03751a63          	bne	a0,s7,8000447c <_printf_common+0x164>
8000444c:	fff00513          	li	a0,-1
80004450:	02c12083          	lw	ra,44(sp)
80004454:	02812403          	lw	s0,40(sp)
80004458:	02412483          	lw	s1,36(sp)
8000445c:	02012903          	lw	s2,32(sp)
80004460:	01c12983          	lw	s3,28(sp)
80004464:	01812a03          	lw	s4,24(sp)
80004468:	01412a83          	lw	s5,20(sp)
8000446c:	01012b03          	lw	s6,16(sp)
80004470:	00c12b83          	lw	s7,12(sp)
80004474:	03010113          	addi	sp,sp,48
80004478:	00008067          	ret
8000447c:	00190913          	addi	s2,s2,1
80004480:	f25ff06f          	j	800043a4 <_printf_common+0x8c>
80004484:	00d40733          	add	a4,s0,a3
80004488:	03000613          	li	a2,48
8000448c:	04c701a3          	sb	a2,67(a4)
80004490:	04544703          	lbu	a4,69(s0)
80004494:	00168793          	addi	a5,a3,1
80004498:	00f407b3          	add	a5,s0,a5
8000449c:	00268693          	addi	a3,a3,2
800044a0:	04e781a3          	sb	a4,67(a5)
800044a4:	f25ff06f          	j	800043c8 <_printf_common+0xb0>
800044a8:	00100693          	li	a3,1
800044ac:	00040613          	mv	a2,s0
800044b0:	000a8593          	mv	a1,s5
800044b4:	00098513          	mv	a0,s3
800044b8:	000a00e7          	jalr	s4
800044bc:	f96508e3          	beq	a0,s6,8000444c <_printf_common+0x134>
800044c0:	00190913          	addi	s2,s2,1
800044c4:	f65ff06f          	j	80004428 <_printf_common+0x110>

800044c8 <_printf_i>:
800044c8:	fc010113          	addi	sp,sp,-64
800044cc:	02812c23          	sw	s0,56(sp)
800044d0:	03312623          	sw	s3,44(sp)
800044d4:	03412423          	sw	s4,40(sp)
800044d8:	03512223          	sw	s5,36(sp)
800044dc:	02112e23          	sw	ra,60(sp)
800044e0:	02912a23          	sw	s1,52(sp)
800044e4:	03212823          	sw	s2,48(sp)
800044e8:	03612023          	sw	s6,32(sp)
800044ec:	01712e23          	sw	s7,28(sp)
800044f0:	01812c23          	sw	s8,24(sp)
800044f4:	01912a23          	sw	s9,20(sp)
800044f8:	0185c783          	lbu	a5,24(a1)
800044fc:	00068a93          	mv	s5,a3
80004500:	07800693          	li	a3,120
80004504:	00050993          	mv	s3,a0
80004508:	00058413          	mv	s0,a1
8000450c:	00060a13          	mv	s4,a2
80004510:	00f6ee63          	bltu	a3,a5,8000452c <_printf_i+0x64>
80004514:	06200693          	li	a3,98
80004518:	04358b13          	addi	s6,a1,67
8000451c:	00f6ec63          	bltu	a3,a5,80004534 <_printf_i+0x6c>
80004520:	2a078863          	beqz	a5,800047d0 <_printf_i+0x308>
80004524:	05800693          	li	a3,88
80004528:	0ed78e63          	beq	a5,a3,80004624 <_printf_i+0x15c>
8000452c:	04240c93          	addi	s9,s0,66
80004530:	0440006f          	j	80004574 <_printf_i+0xac>
80004534:	f9d78593          	addi	a1,a5,-99
80004538:	0ff5f593          	andi	a1,a1,255
8000453c:	01500693          	li	a3,21
80004540:	feb6e6e3          	bltu	a3,a1,8000452c <_printf_i+0x64>
80004544:	00001617          	auipc	a2,0x1
80004548:	88c60613          	addi	a2,a2,-1908 # 80004dd0 <__sf_fake_stdout+0x5c>
8000454c:	00259593          	slli	a1,a1,0x2
80004550:	00c585b3          	add	a1,a1,a2
80004554:	0005a683          	lw	a3,0(a1)
80004558:	00c686b3          	add	a3,a3,a2
8000455c:	00068067          	jr	a3
80004560:	00072783          	lw	a5,0(a4)
80004564:	04240c93          	addi	s9,s0,66
80004568:	00478693          	addi	a3,a5,4
8000456c:	0007a783          	lw	a5,0(a5)
80004570:	00d72023          	sw	a3,0(a4)
80004574:	04f40123          	sb	a5,66(s0)
80004578:	00100793          	li	a5,1
8000457c:	2900006f          	j	8000480c <_printf_i+0x344>
80004580:	00042783          	lw	a5,0(s0)
80004584:	00072603          	lw	a2,0(a4)
80004588:	0807f593          	andi	a1,a5,128
8000458c:	00460693          	addi	a3,a2,4
80004590:	02058663          	beqz	a1,800045bc <_printf_i+0xf4>
80004594:	00062483          	lw	s1,0(a2)
80004598:	00d72023          	sw	a3,0(a4)
8000459c:	0004d863          	bgez	s1,800045ac <_printf_i+0xe4>
800045a0:	02d00793          	li	a5,45
800045a4:	409004b3          	neg	s1,s1
800045a8:	04f401a3          	sb	a5,67(s0)
800045ac:	00000b97          	auipc	s7,0x0
800045b0:	7fcb8b93          	addi	s7,s7,2044 # 80004da8 <__sf_fake_stdout+0x34>
800045b4:	00a00913          	li	s2,10
800045b8:	0bc0006f          	j	80004674 <_printf_i+0x1ac>
800045bc:	00062483          	lw	s1,0(a2)
800045c0:	0407f793          	andi	a5,a5,64
800045c4:	00d72023          	sw	a3,0(a4)
800045c8:	fc078ae3          	beqz	a5,8000459c <_printf_i+0xd4>
800045cc:	01049493          	slli	s1,s1,0x10
800045d0:	4104d493          	srai	s1,s1,0x10
800045d4:	fc9ff06f          	j	8000459c <_printf_i+0xd4>
800045d8:	00042603          	lw	a2,0(s0)
800045dc:	00072683          	lw	a3,0(a4)
800045e0:	08067513          	andi	a0,a2,128
800045e4:	00468593          	addi	a1,a3,4
800045e8:	00050863          	beqz	a0,800045f8 <_printf_i+0x130>
800045ec:	00b72023          	sw	a1,0(a4)
800045f0:	0006a483          	lw	s1,0(a3)
800045f4:	0140006f          	j	80004608 <_printf_i+0x140>
800045f8:	04067613          	andi	a2,a2,64
800045fc:	00b72023          	sw	a1,0(a4)
80004600:	fe0608e3          	beqz	a2,800045f0 <_printf_i+0x128>
80004604:	0006d483          	lhu	s1,0(a3)
80004608:	06f00713          	li	a4,111
8000460c:	00000b97          	auipc	s7,0x0
80004610:	79cb8b93          	addi	s7,s7,1948 # 80004da8 <__sf_fake_stdout+0x34>
80004614:	00a00913          	li	s2,10
80004618:	04e79c63          	bne	a5,a4,80004670 <_printf_i+0x1a8>
8000461c:	00800913          	li	s2,8
80004620:	0500006f          	j	80004670 <_printf_i+0x1a8>
80004624:	04f582a3          	sb	a5,69(a1)
80004628:	00000b97          	auipc	s7,0x0
8000462c:	780b8b93          	addi	s7,s7,1920 # 80004da8 <__sf_fake_stdout+0x34>
80004630:	00042783          	lw	a5,0(s0)
80004634:	00072683          	lw	a3,0(a4)
80004638:	0807f613          	andi	a2,a5,128
8000463c:	0006a483          	lw	s1,0(a3)
80004640:	00468693          	addi	a3,a3,4
80004644:	12060c63          	beqz	a2,8000477c <_printf_i+0x2b4>
80004648:	00d72023          	sw	a3,0(a4)
8000464c:	0017f713          	andi	a4,a5,1
80004650:	00070663          	beqz	a4,8000465c <_printf_i+0x194>
80004654:	0207e793          	ori	a5,a5,32
80004658:	00f42023          	sw	a5,0(s0)
8000465c:	01000913          	li	s2,16
80004660:	00049863          	bnez	s1,80004670 <_printf_i+0x1a8>
80004664:	00042783          	lw	a5,0(s0)
80004668:	fdf7f793          	andi	a5,a5,-33
8000466c:	00f42023          	sw	a5,0(s0)
80004670:	040401a3          	sb	zero,67(s0)
80004674:	00442783          	lw	a5,4(s0)
80004678:	00f42423          	sw	a5,8(s0)
8000467c:	0007c863          	bltz	a5,8000468c <_printf_i+0x1c4>
80004680:	00042703          	lw	a4,0(s0)
80004684:	ffb77713          	andi	a4,a4,-5
80004688:	00e42023          	sw	a4,0(s0)
8000468c:	00049663          	bnez	s1,80004698 <_printf_i+0x1d0>
80004690:	000b0c93          	mv	s9,s6
80004694:	02078e63          	beqz	a5,800046d0 <_printf_i+0x208>
80004698:	000b0c93          	mv	s9,s6
8000469c:	00090593          	mv	a1,s2
800046a0:	00048513          	mv	a0,s1
800046a4:	ab4fe0ef          	jal	ra,80002958 <__umodsi3>
800046a8:	00ab8533          	add	a0,s7,a0
800046ac:	00054783          	lbu	a5,0(a0)
800046b0:	00090593          	mv	a1,s2
800046b4:	00048513          	mv	a0,s1
800046b8:	fefc8fa3          	sb	a5,-1(s9)
800046bc:	00048c13          	mv	s8,s1
800046c0:	a50fe0ef          	jal	ra,80002910 <__udivsi3>
800046c4:	fffc8c93          	addi	s9,s9,-1
800046c8:	00050493          	mv	s1,a0
800046cc:	fd2c78e3          	bgeu	s8,s2,8000469c <_printf_i+0x1d4>
800046d0:	00800793          	li	a5,8
800046d4:	02f91463          	bne	s2,a5,800046fc <_printf_i+0x234>
800046d8:	00042783          	lw	a5,0(s0)
800046dc:	0017f793          	andi	a5,a5,1
800046e0:	00078e63          	beqz	a5,800046fc <_printf_i+0x234>
800046e4:	00442703          	lw	a4,4(s0)
800046e8:	01042783          	lw	a5,16(s0)
800046ec:	00e7c863          	blt	a5,a4,800046fc <_printf_i+0x234>
800046f0:	03000793          	li	a5,48
800046f4:	fefc8fa3          	sb	a5,-1(s9)
800046f8:	fffc8c93          	addi	s9,s9,-1
800046fc:	419b0b33          	sub	s6,s6,s9
80004700:	01642823          	sw	s6,16(s0)
80004704:	000a8713          	mv	a4,s5
80004708:	000a0693          	mv	a3,s4
8000470c:	00c10613          	addi	a2,sp,12
80004710:	00040593          	mv	a1,s0
80004714:	00098513          	mv	a0,s3
80004718:	c01ff0ef          	jal	ra,80004318 <_printf_common>
8000471c:	fff00493          	li	s1,-1
80004720:	0e951c63          	bne	a0,s1,80004818 <_printf_i+0x350>
80004724:	fff00513          	li	a0,-1
80004728:	03c12083          	lw	ra,60(sp)
8000472c:	03812403          	lw	s0,56(sp)
80004730:	03412483          	lw	s1,52(sp)
80004734:	03012903          	lw	s2,48(sp)
80004738:	02c12983          	lw	s3,44(sp)
8000473c:	02812a03          	lw	s4,40(sp)
80004740:	02412a83          	lw	s5,36(sp)
80004744:	02012b03          	lw	s6,32(sp)
80004748:	01c12b83          	lw	s7,28(sp)
8000474c:	01812c03          	lw	s8,24(sp)
80004750:	01412c83          	lw	s9,20(sp)
80004754:	04010113          	addi	sp,sp,64
80004758:	00008067          	ret
8000475c:	00042783          	lw	a5,0(s0)
80004760:	0207e793          	ori	a5,a5,32
80004764:	00f42023          	sw	a5,0(s0)
80004768:	07800793          	li	a5,120
8000476c:	04f402a3          	sb	a5,69(s0)
80004770:	00000b97          	auipc	s7,0x0
80004774:	64cb8b93          	addi	s7,s7,1612 # 80004dbc <__sf_fake_stdout+0x48>
80004778:	eb9ff06f          	j	80004630 <_printf_i+0x168>
8000477c:	0407f613          	andi	a2,a5,64
80004780:	00d72023          	sw	a3,0(a4)
80004784:	ec0604e3          	beqz	a2,8000464c <_printf_i+0x184>
80004788:	01049493          	slli	s1,s1,0x10
8000478c:	0104d493          	srli	s1,s1,0x10
80004790:	ebdff06f          	j	8000464c <_printf_i+0x184>
80004794:	00042683          	lw	a3,0(s0)
80004798:	00072783          	lw	a5,0(a4)
8000479c:	01442603          	lw	a2,20(s0)
800047a0:	0806f513          	andi	a0,a3,128
800047a4:	00478593          	addi	a1,a5,4
800047a8:	00050a63          	beqz	a0,800047bc <_printf_i+0x2f4>
800047ac:	00b72023          	sw	a1,0(a4)
800047b0:	0007a783          	lw	a5,0(a5)
800047b4:	00c7a023          	sw	a2,0(a5)
800047b8:	0180006f          	j	800047d0 <_printf_i+0x308>
800047bc:	00b72023          	sw	a1,0(a4)
800047c0:	0406f693          	andi	a3,a3,64
800047c4:	0007a783          	lw	a5,0(a5)
800047c8:	fe0686e3          	beqz	a3,800047b4 <_printf_i+0x2ec>
800047cc:	00c79023          	sh	a2,0(a5)
800047d0:	00042823          	sw	zero,16(s0)
800047d4:	000b0c93          	mv	s9,s6
800047d8:	f2dff06f          	j	80004704 <_printf_i+0x23c>
800047dc:	00072783          	lw	a5,0(a4)
800047e0:	00442603          	lw	a2,4(s0)
800047e4:	00000593          	li	a1,0
800047e8:	00478693          	addi	a3,a5,4
800047ec:	00d72023          	sw	a3,0(a4)
800047f0:	0007ac83          	lw	s9,0(a5)
800047f4:	000c8513          	mv	a0,s9
800047f8:	af5ff0ef          	jal	ra,800042ec <memchr>
800047fc:	00050663          	beqz	a0,80004808 <_printf_i+0x340>
80004800:	41950533          	sub	a0,a0,s9
80004804:	00a42223          	sw	a0,4(s0)
80004808:	00442783          	lw	a5,4(s0)
8000480c:	00f42823          	sw	a5,16(s0)
80004810:	040401a3          	sb	zero,67(s0)
80004814:	ef1ff06f          	j	80004704 <_printf_i+0x23c>
80004818:	01042683          	lw	a3,16(s0)
8000481c:	000c8613          	mv	a2,s9
80004820:	000a0593          	mv	a1,s4
80004824:	00098513          	mv	a0,s3
80004828:	000a80e7          	jalr	s5
8000482c:	ee950ce3          	beq	a0,s1,80004724 <_printf_i+0x25c>
80004830:	00042783          	lw	a5,0(s0)
80004834:	0027f793          	andi	a5,a5,2
80004838:	04079463          	bnez	a5,80004880 <_printf_i+0x3b8>
8000483c:	00c12783          	lw	a5,12(sp)
80004840:	00c42503          	lw	a0,12(s0)
80004844:	eef552e3          	bge	a0,a5,80004728 <_printf_i+0x260>
80004848:	00078513          	mv	a0,a5
8000484c:	eddff06f          	j	80004728 <_printf_i+0x260>
80004850:	00100693          	li	a3,1
80004854:	00090613          	mv	a2,s2
80004858:	000a0593          	mv	a1,s4
8000485c:	00098513          	mv	a0,s3
80004860:	000a80e7          	jalr	s5
80004864:	ed6500e3          	beq	a0,s6,80004724 <_printf_i+0x25c>
80004868:	00148493          	addi	s1,s1,1
8000486c:	00c42783          	lw	a5,12(s0)
80004870:	00c12703          	lw	a4,12(sp)
80004874:	40e787b3          	sub	a5,a5,a4
80004878:	fcf4cce3          	blt	s1,a5,80004850 <_printf_i+0x388>
8000487c:	fc1ff06f          	j	8000483c <_printf_i+0x374>
80004880:	00000493          	li	s1,0
80004884:	01940913          	addi	s2,s0,25
80004888:	fff00b13          	li	s6,-1
8000488c:	fe1ff06f          	j	8000486c <_printf_i+0x3a4>

80004890 <_read_r>:
80004890:	ff010113          	addi	sp,sp,-16
80004894:	00812423          	sw	s0,8(sp)
80004898:	00050413          	mv	s0,a0
8000489c:	00058513          	mv	a0,a1
800048a0:	00060593          	mv	a1,a2
800048a4:	00068613          	mv	a2,a3
800048a8:	9e01a823          	sw	zero,-1552(gp) # 90000250 <errno>
800048ac:	00112623          	sw	ra,12(sp)
800048b0:	8fdfb0ef          	jal	ra,800001ac <_read>
800048b4:	fff00793          	li	a5,-1
800048b8:	00f51863          	bne	a0,a5,800048c8 <_read_r+0x38>
800048bc:	9f01a783          	lw	a5,-1552(gp) # 90000250 <errno>
800048c0:	00078463          	beqz	a5,800048c8 <_read_r+0x38>
800048c4:	00f42023          	sw	a5,0(s0)
800048c8:	00c12083          	lw	ra,12(sp)
800048cc:	00812403          	lw	s0,8(sp)
800048d0:	01010113          	addi	sp,sp,16
800048d4:	00008067          	ret
